ccopy_reg
_reconstructor
p0
(crequests.models
Response
p1
c__builtin__
object
p2
Ntp3
Rp4
(dp5
S'cookies'
p6
g0
(crequests.cookies
RequestsCookieJar
p7
g2
Ntp8
Rp9
(dp10
S'_now'
p11
I1394560876
sS'_policy'
p12
(icookielib
DefaultCookiePolicy
p13
(dp14
S'strict_rfc2965_unverifiable'
p15
I01
sS'strict_ns_domain'
p16
I0
sS'_allowed_domains'
p17
NsS'rfc2109_as_netscape'
p18
NsS'rfc2965'
p19
I00
sS'strict_domain'
p20
I00
sg11
I1394560876
sS'strict_ns_set_path'
p21
I00
sS'strict_ns_unverifiable'
p22
I00
sS'strict_ns_set_initial_dollar'
p23
I00
sS'hide_cookie2'
p24
I00
sS'_blocked_domains'
p25
(tsS'netscape'
p26
I01
sbsS'_cookies'
p27
(dp28
S'www.showmeboone.com'
p29
(dp30
S'/'
p31
(dp32
S'ASPSESSIONIDASTQSSBB'
p33
(icookielib
Cookie
p34
(dp35
S'comment'
p36
NsS'domain'
p37
g29
sS'name'
p38
g33
sS'domain_initial_dot'
p39
I00
sS'expires'
p40
NsS'value'
p41
S'BPIDCIGDEENICAJFOIFIFIFJ'
p42
sS'domain_specified'
p43
I00
sS'_rest'
p44
(dp45
sS'version'
p46
I0
sS'port_specified'
p47
I00
sS'rfc2109'
p48
I00
sS'discard'
p49
I01
sS'path_specified'
p50
I01
sS'path'
p51
g31
sS'port'
p52
NsS'comment_url'
p53
NsS'secure'
p54
I00
sbssssbsS'_content'
p55
S'\r\n<!DOCTYPE html PUBLIC "-//W3C//DTD XHTML 1.0 Transitional//EN" "http://www.w3.org/TR/xhtml1/DTD/xhtml1-transitional.dtd">\r\n<html xmlns="http://www.w3.org/1999/xhtml">\r\n<head>\r\n<meta http-equiv="Content-Type" content="text/html; charset=utf-8" />\r\n</head>\r\n\r\n<body>\r\n\r\n\r\n</body>\r\n</html>\r\n\r\n\r\n<!DOCTYPE html PUBLIC "-//W3C//DTD XHTML 1.0 Transitional//EN" "http://www.w3.org/TR/xhtml1/DTD/xhtml1-transitional.dtd">\r\n<html xmlns="http://www.w3.org/1999/xhtml">\r\n<head>\r\n<meta http-equiv="Content-Type" content="text/html; charset=utf-8" />\r\n<title>Boone County Sheriff - Current Jail Residents</title>\r\n<link rel="StyleSheet" href="/sheriff/common/css/sheriff.css" type="text/css"/>\r\n<link rel="StyleSheet" href="/common/css/print.css" type="text/css" media="print"/>\r\n<script type="text/javascript" src="/sheriff/common/js/stmenu.js"></script>\r\n<!--[if IE 6]><link href="/sheriff/common/css/ie6hacks.css" rel="stylesheet" type="text/css" media="all" /><![endif]-->\r\n</head>\r\n\r\n<body>\r\n\r\n<div class="pageHeader">\r\n  <div class="headerMenu"><a href="http://www.boonecountymo.org/sheriff/sitemap.aspx">site map</a>  | <a href="#" onclick="window.print();" title="Print this Page">print</a> | <a href="http://www.boonecountymo.org/sheriff/help.aspx">help</a> |\r\n    <form action="http://www.boonecountymo.org/sheriff/searchResults.aspx" id="cse-search-box" style="display: inline;">\r\n     <input type="hidden" name="cx" value="003511776461427227508:vwc7qw7nmy8" />\r\n    <input type="hidden" name="cof" value="FORID:10" />\r\n    <input type="hidden" name="ie" value="UTF-8" />\r\n    <input type="text" name="q" size="31" />\r\n    <input type="submit" name="sa" value="Search" />\r\n  \r\n</form>\r\n<script type="text/javascript" src="http://www.google.com/cse/brand?form=cse-search-box&lang=en"></script>\r\n\r\n  </div>\r\n  <a href="/sheriff/"><img src="/sheriff/common/images/BCSD-title.jpg" alt="Boone County Sheriff\'s Department" class="noBorder" /></a>\r\n  </div>\r\n  \r\n  \r\n<div class="pageMenu">\r\n  \r\n     \r\n    <div class="menuWrapper">\r\n\r\n\r\n\r\n<script type="text/javascript" src="/sheriff/common/js/mainmenu.js"></script>\r\n\r\n\r\n\r\n</div> \r\n</div>\r\n\r\n<div class="pageHeaderPrint">\r\n<table class="DepartmentHeader" summary="Boone County Sheriff\'s department page header">\r\n  \t<tr>\r\n    \t\r\n    \t<td class="DepartmentHeaderTitle" colspan="2">Dwayne Carey<br/>Boone County Sheriff</td>\r\n \t</tr>\r\n  \t<tr>\r\n    \t<td class="DepartmentHeaderAddress">\r\n      \t\tBoone County Sheriff\'s Department and Jail<br/>\r\n      \t\t   2121 County Dr.<br/>\r\n      \t      Columbia, MO 65201</td>\r\n    \t<td class="DepartmentHeaderNumbers">\r\n      \t\tOffice (573) 875-1111<br/>\r\n       \t\t   Fax (573) 874-8953</td>\r\n  \t</tr>\r\n </table>\r\n </div>\r\n\r\n\r\n<br clear="all"/>\r\n<div class="canvas" id="canvas">\r\n\r\n\r\n<h2>Current Inmates of Boone County Jail</h2>\r\n<h3>Date: 3/11/2014</h3>\r\n<br/>\r\n\r\n\r\n\r\n\t\t<table class="resultsTable" style="margin: 0 auto; width: 90%; font-size: small;">\r\n\t\t\t<tr>\r\n\t\t\t\t<th align="left" id="LN">Last Name</th>\r\n\t\t\t\t<th align="left" id="FN">First Name</th>\r\n\t\t\t\t<th align="left" id="MN">Middle</th>\r\n\t\t\t\t<th align="left" id="gender">Gender</th>\r\n\t\t\t\t<th align="left" id="race">Race</th>\r\n\t\t\t\t<th align="left" id="age">Age</th>\r\n\t\t\t\t<th align="left" id="city">City</th>\r\n\t\t\t\t<th align="left" id="state">State</th>\r\n\t\t\t</tr>\r\n  \r\n\t\t<tr class="A"> <td valign=\'top\' headers=\'LN\'>Acosta&nbsp;</td><td valign=\'top\' headers=\'FN\'>Vincent&nbsp;</td><td valign=\'top\' headers=\'MN\'>David&nbsp;</td><td valign=\'top\' headers=\'gender\'>M&nbsp;</td><td valign=\'top\' headers=\'race\'>W&nbsp;</td><td valign=\'top\' headers=\'age\'>49&nbsp;</td><td valign=\'top\' headers=\'city\'>Columbia&nbsp;</td><td valign=\'top\' headers=\'state\'>MO&nbsp;</td></tr><tr class="B"> <td valign=\'top\' headers=\'LN\'>Algiere&nbsp;</td><td valign=\'top\' headers=\'FN\'>Jarren&nbsp;</td><td valign=\'top\' headers=\'MN\'>Dale&nbsp;</td><td valign=\'top\' headers=\'gender\'>M&nbsp;</td><td valign=\'top\' headers=\'race\'>W&nbsp;</td><td valign=\'top\' headers=\'age\'>21&nbsp;</td><td valign=\'top\' headers=\'city\'>Hallsville&nbsp;</td><td valign=\'top\' headers=\'state\'>MO&nbsp;</td></tr><tr class="A"> <td valign=\'top\' headers=\'LN\'>Allen&nbsp;</td><td valign=\'top\' headers=\'FN\'>Samuel&nbsp;</td><td valign=\'top\' headers=\'MN\'>Nathaniel&nbsp;</td><td valign=\'top\' headers=\'gender\'>M&nbsp;</td><td valign=\'top\' headers=\'race\'>B&nbsp;</td><td valign=\'top\' headers=\'age\'>36&nbsp;</td><td valign=\'top\' headers=\'city\'>Columbia&nbsp;</td><td valign=\'top\' headers=\'state\'>MO&nbsp;</td></tr><tr class="B"> <td valign=\'top\' headers=\'LN\'>Badalbaev&nbsp;</td><td valign=\'top\' headers=\'FN\'>Edgor&nbsp;</td><td valign=\'top\' headers=\'MN\'>&nbsp;</td><td valign=\'top\' headers=\'gender\'>M&nbsp;</td><td valign=\'top\' headers=\'race\'>W&nbsp;</td><td valign=\'top\' headers=\'age\'>42&nbsp;</td><td valign=\'top\' headers=\'city\'>Columbia&nbsp;</td><td valign=\'top\' headers=\'state\'>MO&nbsp;</td></tr><tr class="A"> <td valign=\'top\' headers=\'LN\'>Baker&nbsp;</td><td valign=\'top\' headers=\'FN\'>Cody&nbsp;</td><td valign=\'top\' headers=\'MN\'>Marshall&nbsp;</td><td valign=\'top\' headers=\'gender\'>M&nbsp;</td><td valign=\'top\' headers=\'race\'>W&nbsp;</td><td valign=\'top\' headers=\'age\'>31&nbsp;</td><td valign=\'top\' headers=\'city\'>Ashland&nbsp;</td><td valign=\'top\' headers=\'state\'>MO&nbsp;</td></tr><tr class="B"> <td valign=\'top\' headers=\'LN\'>Baker&nbsp;</td><td valign=\'top\' headers=\'FN\'>Thomas&nbsp;</td><td valign=\'top\' headers=\'MN\'>Jackson&nbsp;</td><td valign=\'top\' headers=\'gender\'>M&nbsp;</td><td valign=\'top\' headers=\'race\'>W&nbsp;</td><td valign=\'top\' headers=\'age\'>32&nbsp;</td><td valign=\'top\' headers=\'city\'>Fayette&nbsp;</td><td valign=\'top\' headers=\'state\'>MO&nbsp;</td></tr><tr class="A"> <td valign=\'top\' headers=\'LN\'>Baldwin&nbsp;</td><td valign=\'top\' headers=\'FN\'>Juan&nbsp;</td><td valign=\'top\' headers=\'MN\'>Eldrick&nbsp;</td><td valign=\'top\' headers=\'gender\'>M&nbsp;</td><td valign=\'top\' headers=\'race\'>B&nbsp;</td><td valign=\'top\' headers=\'age\'>51&nbsp;</td><td valign=\'top\' headers=\'city\'>Ashland&nbsp;</td><td valign=\'top\' headers=\'state\'>MO&nbsp;</td></tr><tr class="B"> <td valign=\'top\' headers=\'LN\'>Banks&nbsp;</td><td valign=\'top\' headers=\'FN\'>Antonio&nbsp;</td><td valign=\'top\' headers=\'MN\'>Laron&nbsp;</td><td valign=\'top\' headers=\'gender\'>M&nbsp;</td><td valign=\'top\' headers=\'race\'>B&nbsp;</td><td valign=\'top\' headers=\'age\'>22&nbsp;</td><td valign=\'top\' headers=\'city\'>Jefferson City&nbsp;</td><td valign=\'top\' headers=\'state\'>MO&nbsp;</td></tr><tr class="A"> <td valign=\'top\' headers=\'LN\'>Barnett&nbsp;</td><td valign=\'top\' headers=\'FN\'>Anthony&nbsp;</td><td valign=\'top\' headers=\'MN\'>Judson&nbsp;</td><td valign=\'top\' headers=\'gender\'>M&nbsp;</td><td valign=\'top\' headers=\'race\'>W&nbsp;</td><td valign=\'top\' headers=\'age\'>27&nbsp;</td><td valign=\'top\' headers=\'city\'>Centralia&nbsp;</td><td valign=\'top\' headers=\'state\'>MO&nbsp;</td></tr><tr class="B"> <td valign=\'top\' headers=\'LN\'>Beckham&nbsp;</td><td valign=\'top\' headers=\'FN\'>Paul&nbsp;</td><td valign=\'top\' headers=\'MN\'>Dean&nbsp;</td><td valign=\'top\' headers=\'gender\'>M&nbsp;</td><td valign=\'top\' headers=\'race\'>W&nbsp;</td><td valign=\'top\' headers=\'age\'>46&nbsp;</td><td valign=\'top\' headers=\'city\'>Perry&nbsp;</td><td valign=\'top\' headers=\'state\'>MO&nbsp;</td></tr><tr class="A"> <td valign=\'top\' headers=\'LN\'>Berry&nbsp;</td><td valign=\'top\' headers=\'FN\'>Natrell&nbsp;</td><td valign=\'top\' headers=\'MN\'>Mashawun&nbsp;</td><td valign=\'top\' headers=\'gender\'>M&nbsp;</td><td valign=\'top\' headers=\'race\'>B&nbsp;</td><td valign=\'top\' headers=\'age\'>20&nbsp;</td><td valign=\'top\' headers=\'city\'>Columbia&nbsp;</td><td valign=\'top\' headers=\'state\'>MO&nbsp;</td></tr><tr class="B"> <td valign=\'top\' headers=\'LN\'>Birmingham&nbsp;</td><td valign=\'top\' headers=\'FN\'>Andrew&nbsp;</td><td valign=\'top\' headers=\'MN\'>Ryan&nbsp;</td><td valign=\'top\' headers=\'gender\'>M&nbsp;</td><td valign=\'top\' headers=\'race\'>W&nbsp;</td><td valign=\'top\' headers=\'age\'>18&nbsp;</td><td valign=\'top\' headers=\'city\'>Columbia&nbsp;</td><td valign=\'top\' headers=\'state\'>MO&nbsp;</td></tr><tr class="A"> <td valign=\'top\' headers=\'LN\'>Bishop&nbsp;</td><td valign=\'top\' headers=\'FN\'>Darrell&nbsp;</td><td valign=\'top\' headers=\'MN\'>Deandre&nbsp;</td><td valign=\'top\' headers=\'gender\'>M&nbsp;</td><td valign=\'top\' headers=\'race\'>B&nbsp;</td><td valign=\'top\' headers=\'age\'>29&nbsp;</td><td valign=\'top\' headers=\'city\'>St Louis&nbsp;</td><td valign=\'top\' headers=\'state\'>MO&nbsp;</td></tr><tr class="B"> <td valign=\'top\' headers=\'LN\'>Boone&nbsp;</td><td valign=\'top\' headers=\'FN\'>Anthony&nbsp;</td><td valign=\'top\' headers=\'MN\'>Lane&nbsp;</td><td valign=\'top\' headers=\'gender\'>M&nbsp;</td><td valign=\'top\' headers=\'race\'>W&nbsp;</td><td valign=\'top\' headers=\'age\'>44&nbsp;</td><td valign=\'top\' headers=\'city\'>Strugeon&nbsp;</td><td valign=\'top\' headers=\'state\'>MO&nbsp;</td></tr><tr class="A"> <td valign=\'top\' headers=\'LN\'>Bowen&nbsp;</td><td valign=\'top\' headers=\'FN\'>Dylan&nbsp;</td><td valign=\'top\' headers=\'MN\'>Matthew Earl&nbsp;</td><td valign=\'top\' headers=\'gender\'>M&nbsp;</td><td valign=\'top\' headers=\'race\'>W&nbsp;</td><td valign=\'top\' headers=\'age\'>22&nbsp;</td><td valign=\'top\' headers=\'city\'>Columbia&nbsp;</td><td valign=\'top\' headers=\'state\'>MO&nbsp;</td></tr><tr class="B"> <td valign=\'top\' headers=\'LN\'>Bowen&nbsp;</td><td valign=\'top\' headers=\'FN\'>Steven&nbsp;</td><td valign=\'top\' headers=\'MN\'>Wayne&nbsp;</td><td valign=\'top\' headers=\'gender\'>M&nbsp;</td><td valign=\'top\' headers=\'race\'>W&nbsp;</td><td valign=\'top\' headers=\'age\'>42&nbsp;</td><td valign=\'top\' headers=\'city\'>Columbia&nbsp;</td><td valign=\'top\' headers=\'state\'>MO&nbsp;</td></tr><tr class="A"> <td valign=\'top\' headers=\'LN\'>Bower&nbsp;</td><td valign=\'top\' headers=\'FN\'>David&nbsp;</td><td valign=\'top\' headers=\'MN\'>Wayne&nbsp;</td><td valign=\'top\' headers=\'gender\'>M&nbsp;</td><td valign=\'top\' headers=\'race\'>W&nbsp;</td><td valign=\'top\' headers=\'age\'>56&nbsp;</td><td valign=\'top\' headers=\'city\'>Columbia&nbsp;</td><td valign=\'top\' headers=\'state\'>MO&nbsp;</td></tr><tr class="B"> <td valign=\'top\' headers=\'LN\'>Bowman&nbsp;</td><td valign=\'top\' headers=\'FN\'>Stephen&nbsp;</td><td valign=\'top\' headers=\'MN\'>Leon&nbsp;</td><td valign=\'top\' headers=\'gender\'>M&nbsp;</td><td valign=\'top\' headers=\'race\'>B&nbsp;</td><td valign=\'top\' headers=\'age\'>35&nbsp;</td><td valign=\'top\' headers=\'city\'>Columbia&nbsp;</td><td valign=\'top\' headers=\'state\'>MO&nbsp;</td></tr><tr class="A"> <td valign=\'top\' headers=\'LN\'>Boyce&nbsp;</td><td valign=\'top\' headers=\'FN\'>Cody&nbsp;</td><td valign=\'top\' headers=\'MN\'>James&nbsp;</td><td valign=\'top\' headers=\'gender\'>M&nbsp;</td><td valign=\'top\' headers=\'race\'>W&nbsp;</td><td valign=\'top\' headers=\'age\'>23&nbsp;</td><td valign=\'top\' headers=\'city\'>Columbia&nbsp;</td><td valign=\'top\' headers=\'state\'>MO&nbsp;</td></tr><tr class="B"> <td valign=\'top\' headers=\'LN\'>Bradley&nbsp;</td><td valign=\'top\' headers=\'FN\'>Alexia&nbsp;</td><td valign=\'top\' headers=\'MN\'>Rose&nbsp;</td><td valign=\'top\' headers=\'gender\'>F&nbsp;</td><td valign=\'top\' headers=\'race\'>W&nbsp;</td><td valign=\'top\' headers=\'age\'>21&nbsp;</td><td valign=\'top\' headers=\'city\'>Columbia&nbsp;</td><td valign=\'top\' headers=\'state\'>MO&nbsp;</td></tr><tr class="A"> <td valign=\'top\' headers=\'LN\'>Brown&nbsp;</td><td valign=\'top\' headers=\'FN\'>Christopher&nbsp;</td><td valign=\'top\' headers=\'MN\'>Dwayne&nbsp;</td><td valign=\'top\' headers=\'gender\'>M&nbsp;</td><td valign=\'top\' headers=\'race\'>B&nbsp;</td><td valign=\'top\' headers=\'age\'>28&nbsp;</td><td valign=\'top\' headers=\'city\'>Columbia&nbsp;</td><td valign=\'top\' headers=\'state\'>MO&nbsp;</td></tr><tr class="B"> <td valign=\'top\' headers=\'LN\'>Brown&nbsp;</td><td valign=\'top\' headers=\'FN\'>Larry&nbsp;</td><td valign=\'top\' headers=\'MN\'>John&nbsp;</td><td valign=\'top\' headers=\'gender\'>M&nbsp;</td><td valign=\'top\' headers=\'race\'>B&nbsp;</td><td valign=\'top\' headers=\'age\'>31&nbsp;</td><td valign=\'top\' headers=\'city\'>Columbia&nbsp;</td><td valign=\'top\' headers=\'state\'>MO&nbsp;</td></tr><tr class="A"> <td valign=\'top\' headers=\'LN\'>Bryant&nbsp;</td><td valign=\'top\' headers=\'FN\'>Ronald&nbsp;</td><td valign=\'top\' headers=\'MN\'>Dean&nbsp;</td><td valign=\'top\' headers=\'gender\'>M&nbsp;</td><td valign=\'top\' headers=\'race\'>W&nbsp;</td><td valign=\'top\' headers=\'age\'>69&nbsp;</td><td valign=\'top\' headers=\'city\'>Columbia&nbsp;</td><td valign=\'top\' headers=\'state\'>MO&nbsp;</td></tr><tr class="B"> <td valign=\'top\' headers=\'LN\'>Bullard&nbsp;</td><td valign=\'top\' headers=\'FN\'>Zachary&nbsp;</td><td valign=\'top\' headers=\'MN\'>Lee&nbsp;</td><td valign=\'top\' headers=\'gender\'>M&nbsp;</td><td valign=\'top\' headers=\'race\'>W&nbsp;</td><td valign=\'top\' headers=\'age\'>25&nbsp;</td><td valign=\'top\' headers=\'city\'>Columbia&nbsp;</td><td valign=\'top\' headers=\'state\'>MO&nbsp;</td></tr><tr class="A"> <td valign=\'top\' headers=\'LN\'>Burnett&nbsp;</td><td valign=\'top\' headers=\'FN\'>Jermell&nbsp;</td><td valign=\'top\' headers=\'MN\'>Lamar&nbsp;</td><td valign=\'top\' headers=\'gender\'>M&nbsp;</td><td valign=\'top\' headers=\'race\'>B&nbsp;</td><td valign=\'top\' headers=\'age\'>30&nbsp;</td><td valign=\'top\' headers=\'city\'>Columbia&nbsp;</td><td valign=\'top\' headers=\'state\'>MO&nbsp;</td></tr><tr class="B"> <td valign=\'top\' headers=\'LN\'>Bury&nbsp;</td><td valign=\'top\' headers=\'FN\'>Kelly&nbsp;</td><td valign=\'top\' headers=\'MN\'>Ann&nbsp;</td><td valign=\'top\' headers=\'gender\'>F&nbsp;</td><td valign=\'top\' headers=\'race\'>W&nbsp;</td><td valign=\'top\' headers=\'age\'>29&nbsp;</td><td valign=\'top\' headers=\'city\'>Pompano Beach&nbsp;</td><td valign=\'top\' headers=\'state\'>FL&nbsp;</td></tr><tr class="A"> <td valign=\'top\' headers=\'LN\'>Butkievich&nbsp;</td><td valign=\'top\' headers=\'FN\'>Edward&nbsp;</td><td valign=\'top\' headers=\'MN\'>Stephan&nbsp;</td><td valign=\'top\' headers=\'gender\'>M&nbsp;</td><td valign=\'top\' headers=\'race\'>W&nbsp;</td><td valign=\'top\' headers=\'age\'>70&nbsp;</td><td valign=\'top\' headers=\'city\'>Columbia&nbsp;</td><td valign=\'top\' headers=\'state\'>MO&nbsp;</td></tr><tr class="B"> <td valign=\'top\' headers=\'LN\'>Carr&nbsp;</td><td valign=\'top\' headers=\'FN\'>Adrian&nbsp;</td><td valign=\'top\' headers=\'MN\'>Alan&nbsp;</td><td valign=\'top\' headers=\'gender\'>M&nbsp;</td><td valign=\'top\' headers=\'race\'>B&nbsp;</td><td valign=\'top\' headers=\'age\'>41&nbsp;</td><td valign=\'top\' headers=\'city\'>St Louis&nbsp;</td><td valign=\'top\' headers=\'state\'>MO&nbsp;</td></tr><tr class="A"> <td valign=\'top\' headers=\'LN\'>Carter&nbsp;</td><td valign=\'top\' headers=\'FN\'>Bobbi&nbsp;</td><td valign=\'top\' headers=\'MN\'>Jo&nbsp;</td><td valign=\'top\' headers=\'gender\'>F&nbsp;</td><td valign=\'top\' headers=\'race\'>W&nbsp;</td><td valign=\'top\' headers=\'age\'>38&nbsp;</td><td valign=\'top\' headers=\'city\'>Columbia&nbsp;</td><td valign=\'top\' headers=\'state\'>MO&nbsp;</td></tr><tr class="B"> <td valign=\'top\' headers=\'LN\'>Cash&nbsp;</td><td valign=\'top\' headers=\'FN\'>Randy&nbsp;</td><td valign=\'top\' headers=\'MN\'>Eric&nbsp;</td><td valign=\'top\' headers=\'gender\'>M&nbsp;</td><td valign=\'top\' headers=\'race\'>W&nbsp;</td><td valign=\'top\' headers=\'age\'>32&nbsp;</td><td valign=\'top\' headers=\'city\'>Middletown&nbsp;</td><td valign=\'top\' headers=\'state\'>MO&nbsp;</td></tr><tr class="A"> <td valign=\'top\' headers=\'LN\'>Casto&nbsp;</td><td valign=\'top\' headers=\'FN\'>Corey&nbsp;</td><td valign=\'top\' headers=\'MN\'>Daniel&nbsp;</td><td valign=\'top\' headers=\'gender\'>M&nbsp;</td><td valign=\'top\' headers=\'race\'>W&nbsp;</td><td valign=\'top\' headers=\'age\'>23&nbsp;</td><td valign=\'top\' headers=\'city\'>Columbia&nbsp;</td><td valign=\'top\' headers=\'state\'>MO&nbsp;</td></tr><tr class="B"> <td valign=\'top\' headers=\'LN\'>Chaney&nbsp;</td><td valign=\'top\' headers=\'FN\'>Christopher&nbsp;</td><td valign=\'top\' headers=\'MN\'>Steven&nbsp;</td><td valign=\'top\' headers=\'gender\'>M&nbsp;</td><td valign=\'top\' headers=\'race\'>W&nbsp;</td><td valign=\'top\' headers=\'age\'>34&nbsp;</td><td valign=\'top\' headers=\'city\'>Columbia&nbsp;</td><td valign=\'top\' headers=\'state\'>MO&nbsp;</td></tr><tr class="A"> <td valign=\'top\' headers=\'LN\'>Cheatom&nbsp;</td><td valign=\'top\' headers=\'FN\'>Darien&nbsp;</td><td valign=\'top\' headers=\'MN\'>Capri&nbsp;</td><td valign=\'top\' headers=\'gender\'>M&nbsp;</td><td valign=\'top\' headers=\'race\'>B&nbsp;</td><td valign=\'top\' headers=\'age\'>20&nbsp;</td><td valign=\'top\' headers=\'city\'>Columbia&nbsp;</td><td valign=\'top\' headers=\'state\'>MO&nbsp;</td></tr><tr class="B"> <td valign=\'top\' headers=\'LN\'>Cheatum&nbsp;</td><td valign=\'top\' headers=\'FN\'>Damerian&nbsp;</td><td valign=\'top\' headers=\'MN\'>Creshwn&nbsp;</td><td valign=\'top\' headers=\'gender\'>M&nbsp;</td><td valign=\'top\' headers=\'race\'>B&nbsp;</td><td valign=\'top\' headers=\'age\'>17&nbsp;</td><td valign=\'top\' headers=\'city\'>Columbia&nbsp;</td><td valign=\'top\' headers=\'state\'>MO&nbsp;</td></tr><tr class="A"> <td valign=\'top\' headers=\'LN\'>Ciarlini&nbsp;</td><td valign=\'top\' headers=\'FN\'>Pedro&nbsp;</td><td valign=\'top\' headers=\'MN\'>Gabrielben&nbsp;</td><td valign=\'top\' headers=\'gender\'>M&nbsp;</td><td valign=\'top\' headers=\'race\'>U&nbsp;</td><td valign=\'top\' headers=\'age\'>18&nbsp;</td><td valign=\'top\' headers=\'city\'>Columbia&nbsp;</td><td valign=\'top\' headers=\'state\'>MO&nbsp;</td></tr><tr class="B"> <td valign=\'top\' headers=\'LN\'>Clark&nbsp;</td><td valign=\'top\' headers=\'FN\'>Amanda&nbsp;</td><td valign=\'top\' headers=\'MN\'>Lyn&nbsp;</td><td valign=\'top\' headers=\'gender\'>F&nbsp;</td><td valign=\'top\' headers=\'race\'>W&nbsp;</td><td valign=\'top\' headers=\'age\'>30&nbsp;</td><td valign=\'top\' headers=\'city\'>Columbia&nbsp;</td><td valign=\'top\' headers=\'state\'>MO&nbsp;</td></tr><tr class="A"> <td valign=\'top\' headers=\'LN\'>Clarkson&nbsp;</td><td valign=\'top\' headers=\'FN\'>Rodney&nbsp;</td><td valign=\'top\' headers=\'MN\'>Alexander&nbsp;</td><td valign=\'top\' headers=\'gender\'>M&nbsp;</td><td valign=\'top\' headers=\'race\'>B&nbsp;</td><td valign=\'top\' headers=\'age\'>22&nbsp;</td><td valign=\'top\' headers=\'city\'>Columbia&nbsp;</td><td valign=\'top\' headers=\'state\'>MO&nbsp;</td></tr><tr class="B"> <td valign=\'top\' headers=\'LN\'>Collier&nbsp;</td><td valign=\'top\' headers=\'FN\'>Tylor&nbsp;</td><td valign=\'top\' headers=\'MN\'>Adam&nbsp;</td><td valign=\'top\' headers=\'gender\'>M&nbsp;</td><td valign=\'top\' headers=\'race\'>B&nbsp;</td><td valign=\'top\' headers=\'age\'>20&nbsp;</td><td valign=\'top\' headers=\'city\'>Columbia&nbsp;</td><td valign=\'top\' headers=\'state\'>MO&nbsp;</td></tr><tr class="A"> <td valign=\'top\' headers=\'LN\'>Collins&nbsp;</td><td valign=\'top\' headers=\'FN\'>Kyle&nbsp;</td><td valign=\'top\' headers=\'MN\'>Alexander&nbsp;</td><td valign=\'top\' headers=\'gender\'>M&nbsp;</td><td valign=\'top\' headers=\'race\'>W&nbsp;</td><td valign=\'top\' headers=\'age\'>28&nbsp;</td><td valign=\'top\' headers=\'city\'>Greenville&nbsp;</td><td valign=\'top\' headers=\'state\'>SC&nbsp;</td></tr><tr class="B"> <td valign=\'top\' headers=\'LN\'>Contreras-Cornejo&nbsp;</td><td valign=\'top\' headers=\'FN\'>Oscar&nbsp;</td><td valign=\'top\' headers=\'MN\'>Antonio&nbsp;</td><td valign=\'top\' headers=\'gender\'>M&nbsp;</td><td valign=\'top\' headers=\'race\'>W&nbsp;</td><td valign=\'top\' headers=\'age\'>26&nbsp;</td><td valign=\'top\' headers=\'city\'>Columbia&nbsp;</td><td valign=\'top\' headers=\'state\'>MO&nbsp;</td></tr><tr class="A"> <td valign=\'top\' headers=\'LN\'>Cooper&nbsp;</td><td valign=\'top\' headers=\'FN\'>William&nbsp;</td><td valign=\'top\' headers=\'MN\'>Deonte&nbsp;</td><td valign=\'top\' headers=\'gender\'>M&nbsp;</td><td valign=\'top\' headers=\'race\'>B&nbsp;</td><td valign=\'top\' headers=\'age\'>34&nbsp;</td><td valign=\'top\' headers=\'city\'>Macon&nbsp;</td><td valign=\'top\' headers=\'state\'>MO&nbsp;</td></tr><tr class="B"> <td valign=\'top\' headers=\'LN\'>Copelin&nbsp;</td><td valign=\'top\' headers=\'FN\'>Derrick&nbsp;</td><td valign=\'top\' headers=\'MN\'>Quincy&nbsp;</td><td valign=\'top\' headers=\'gender\'>M&nbsp;</td><td valign=\'top\' headers=\'race\'>B&nbsp;</td><td valign=\'top\' headers=\'age\'>17&nbsp;</td><td valign=\'top\' headers=\'city\'>New Orleans&nbsp;</td><td valign=\'top\' headers=\'state\'>LA&nbsp;</td></tr><tr class="A"> <td valign=\'top\' headers=\'LN\'>Creech&nbsp;</td><td valign=\'top\' headers=\'FN\'>Timothy&nbsp;</td><td valign=\'top\' headers=\'MN\'>Wayne&nbsp;</td><td valign=\'top\' headers=\'gender\'>M&nbsp;</td><td valign=\'top\' headers=\'race\'>W&nbsp;</td><td valign=\'top\' headers=\'age\'>34&nbsp;</td><td valign=\'top\' headers=\'city\'>Troy&nbsp;</td><td valign=\'top\' headers=\'state\'>MO&nbsp;</td></tr><tr class="B"> <td valign=\'top\' headers=\'LN\'>Criswell&nbsp;</td><td valign=\'top\' headers=\'FN\'>Phillip&nbsp;</td><td valign=\'top\' headers=\'MN\'>Scott&nbsp;</td><td valign=\'top\' headers=\'gender\'>M&nbsp;</td><td valign=\'top\' headers=\'race\'>B&nbsp;</td><td valign=\'top\' headers=\'age\'>34&nbsp;</td><td valign=\'top\' headers=\'city\'>Kansas City&nbsp;</td><td valign=\'top\' headers=\'state\'>MO&nbsp;</td></tr><tr class="A"> <td valign=\'top\' headers=\'LN\'>Crockett&nbsp;</td><td valign=\'top\' headers=\'FN\'>Rodney&nbsp;</td><td valign=\'top\' headers=\'MN\'>Aaron&nbsp;</td><td valign=\'top\' headers=\'gender\'>M&nbsp;</td><td valign=\'top\' headers=\'race\'>B&nbsp;</td><td valign=\'top\' headers=\'age\'>47&nbsp;</td><td valign=\'top\' headers=\'city\'>Kansas City&nbsp;</td><td valign=\'top\' headers=\'state\'>MO&nbsp;</td></tr><tr class="B"> <td valign=\'top\' headers=\'LN\'>Cuno&nbsp;</td><td valign=\'top\' headers=\'FN\'>Jimmie&nbsp;</td><td valign=\'top\' headers=\'MN\'>Lee&nbsp;</td><td valign=\'top\' headers=\'gender\'>M&nbsp;</td><td valign=\'top\' headers=\'race\'>W&nbsp;</td><td valign=\'top\' headers=\'age\'>61&nbsp;</td><td valign=\'top\' headers=\'city\'>Columbia&nbsp;</td><td valign=\'top\' headers=\'state\'>MO&nbsp;</td></tr><tr class="A"> <td valign=\'top\' headers=\'LN\'>Davidson&nbsp;</td><td valign=\'top\' headers=\'FN\'>Kejhon&nbsp;</td><td valign=\'top\' headers=\'MN\'>Harold&nbsp;</td><td valign=\'top\' headers=\'gender\'>M&nbsp;</td><td valign=\'top\' headers=\'race\'>B&nbsp;</td><td valign=\'top\' headers=\'age\'>21&nbsp;</td><td valign=\'top\' headers=\'city\'>Columbia&nbsp;</td><td valign=\'top\' headers=\'state\'>MO&nbsp;</td></tr><tr class="B"> <td valign=\'top\' headers=\'LN\'>Davis&nbsp;</td><td valign=\'top\' headers=\'FN\'>Doris&nbsp;</td><td valign=\'top\' headers=\'MN\'>Laprell&nbsp;</td><td valign=\'top\' headers=\'gender\'>F&nbsp;</td><td valign=\'top\' headers=\'race\'>B&nbsp;</td><td valign=\'top\' headers=\'age\'>21&nbsp;</td><td valign=\'top\' headers=\'city\'>Columbia&nbsp;</td><td valign=\'top\' headers=\'state\'>MO&nbsp;</td></tr><tr class="A"> <td valign=\'top\' headers=\'LN\'>Davis&nbsp;</td><td valign=\'top\' headers=\'FN\'>Jason&nbsp;</td><td valign=\'top\' headers=\'MN\'>Robert&nbsp;</td><td valign=\'top\' headers=\'gender\'>M&nbsp;</td><td valign=\'top\' headers=\'race\'>B&nbsp;</td><td valign=\'top\' headers=\'age\'>32&nbsp;</td><td valign=\'top\' headers=\'city\'>Columbia&nbsp;</td><td valign=\'top\' headers=\'state\'>MO&nbsp;</td></tr><tr class="B"> <td valign=\'top\' headers=\'LN\'>Deacon&nbsp;</td><td valign=\'top\' headers=\'FN\'>Dustin&nbsp;</td><td valign=\'top\' headers=\'MN\'>Odale&nbsp;</td><td valign=\'top\' headers=\'gender\'>M&nbsp;</td><td valign=\'top\' headers=\'race\'>W&nbsp;</td><td valign=\'top\' headers=\'age\'>22&nbsp;</td><td valign=\'top\' headers=\'city\'>Columbia&nbsp;</td><td valign=\'top\' headers=\'state\'>MO&nbsp;</td></tr><tr class="A"> <td valign=\'top\' headers=\'LN\'>Delacruz&nbsp;</td><td valign=\'top\' headers=\'FN\'>Kristina&nbsp;</td><td valign=\'top\' headers=\'MN\'>&nbsp;</td><td valign=\'top\' headers=\'gender\'>F&nbsp;</td><td valign=\'top\' headers=\'race\'>W&nbsp;</td><td valign=\'top\' headers=\'age\'>35&nbsp;</td><td valign=\'top\' headers=\'city\'>Columbia&nbsp;</td><td valign=\'top\' headers=\'state\'>MO&nbsp;</td></tr><tr class="B"> <td valign=\'top\' headers=\'LN\'>Denny&nbsp;</td><td valign=\'top\' headers=\'FN\'>Deandre&nbsp;</td><td valign=\'top\' headers=\'MN\'>Lavelle&nbsp;</td><td valign=\'top\' headers=\'gender\'>M&nbsp;</td><td valign=\'top\' headers=\'race\'>B&nbsp;</td><td valign=\'top\' headers=\'age\'>17&nbsp;</td><td valign=\'top\' headers=\'city\'>Columbia&nbsp;</td><td valign=\'top\' headers=\'state\'>MO&nbsp;</td></tr><tr class="A"> <td valign=\'top\' headers=\'LN\'>Dike&nbsp;</td><td valign=\'top\' headers=\'FN\'>Mark&nbsp;</td><td valign=\'top\' headers=\'MN\'>Alan&nbsp;</td><td valign=\'top\' headers=\'gender\'>M&nbsp;</td><td valign=\'top\' headers=\'race\'>W&nbsp;</td><td valign=\'top\' headers=\'age\'>47&nbsp;</td><td valign=\'top\' headers=\'city\'>Columbia&nbsp;</td><td valign=\'top\' headers=\'state\'>MO&nbsp;</td></tr><tr class="B"> <td valign=\'top\' headers=\'LN\'>Dillick&nbsp;</td><td valign=\'top\' headers=\'FN\'>Joshua&nbsp;</td><td valign=\'top\' headers=\'MN\'>James Richard&nbsp;</td><td valign=\'top\' headers=\'gender\'>M&nbsp;</td><td valign=\'top\' headers=\'race\'>W&nbsp;</td><td valign=\'top\' headers=\'age\'>22&nbsp;</td><td valign=\'top\' headers=\'city\'>Columbia&nbsp;</td><td valign=\'top\' headers=\'state\'>MO&nbsp;</td></tr><tr class="A"> <td valign=\'top\' headers=\'LN\'>Dixson&nbsp;</td><td valign=\'top\' headers=\'FN\'>Marcus&nbsp;</td><td valign=\'top\' headers=\'MN\'>Luke&nbsp;</td><td valign=\'top\' headers=\'gender\'>M&nbsp;</td><td valign=\'top\' headers=\'race\'>W&nbsp;</td><td valign=\'top\' headers=\'age\'>22&nbsp;</td><td valign=\'top\' headers=\'city\'>Shelbina&nbsp;</td><td valign=\'top\' headers=\'state\'>MO&nbsp;</td></tr><tr class="B"> <td valign=\'top\' headers=\'LN\'>Dockery&nbsp;</td><td valign=\'top\' headers=\'FN\'>Devin&nbsp;</td><td valign=\'top\' headers=\'MN\'>Dijon&nbsp;</td><td valign=\'top\' headers=\'gender\'>M&nbsp;</td><td valign=\'top\' headers=\'race\'>B&nbsp;</td><td valign=\'top\' headers=\'age\'>24&nbsp;</td><td valign=\'top\' headers=\'city\'>Sturgeon&nbsp;</td><td valign=\'top\' headers=\'state\'>MO&nbsp;</td></tr><tr class="A"> <td valign=\'top\' headers=\'LN\'>Donald&nbsp;</td><td valign=\'top\' headers=\'FN\'>Todez&nbsp;</td><td valign=\'top\' headers=\'MN\'>William&nbsp;</td><td valign=\'top\' headers=\'gender\'>M&nbsp;</td><td valign=\'top\' headers=\'race\'>B&nbsp;</td><td valign=\'top\' headers=\'age\'>29&nbsp;</td><td valign=\'top\' headers=\'city\'>Columbia&nbsp;</td><td valign=\'top\' headers=\'state\'>MO&nbsp;</td></tr><tr class="B"> <td valign=\'top\' headers=\'LN\'>Duck&nbsp;</td><td valign=\'top\' headers=\'FN\'>Jerry&nbsp;</td><td valign=\'top\' headers=\'MN\'>Lee&nbsp;</td><td valign=\'top\' headers=\'gender\'>M&nbsp;</td><td valign=\'top\' headers=\'race\'>W&nbsp;</td><td valign=\'top\' headers=\'age\'>59&nbsp;</td><td valign=\'top\' headers=\'city\'>Columbia&nbsp;</td><td valign=\'top\' headers=\'state\'>MO&nbsp;</td></tr><tr class="A"> <td valign=\'top\' headers=\'LN\'>Duperoy-Diaz&nbsp;</td><td valign=\'top\' headers=\'FN\'>Jose&nbsp;</td><td valign=\'top\' headers=\'MN\'>Antonio&nbsp;</td><td valign=\'top\' headers=\'gender\'>M&nbsp;</td><td valign=\'top\' headers=\'race\'>H&nbsp;</td><td valign=\'top\' headers=\'age\'>38&nbsp;</td><td valign=\'top\' headers=\'city\'>Columbia&nbsp;</td><td valign=\'top\' headers=\'state\'>MO&nbsp;</td></tr><tr class="B"> <td valign=\'top\' headers=\'LN\'>Dyer&nbsp;</td><td valign=\'top\' headers=\'FN\'>Eugenia&nbsp;</td><td valign=\'top\' headers=\'MN\'>Mitchell&nbsp;</td><td valign=\'top\' headers=\'gender\'>F&nbsp;</td><td valign=\'top\' headers=\'race\'>B&nbsp;</td><td valign=\'top\' headers=\'age\'>36&nbsp;</td><td valign=\'top\' headers=\'city\'>Columbia&nbsp;</td><td valign=\'top\' headers=\'state\'>MO&nbsp;</td></tr><tr class="A"> <td valign=\'top\' headers=\'LN\'>Edwards&nbsp;</td><td valign=\'top\' headers=\'FN\'>Darrius&nbsp;</td><td valign=\'top\' headers=\'MN\'>Kendal&nbsp;</td><td valign=\'top\' headers=\'gender\'>M&nbsp;</td><td valign=\'top\' headers=\'race\'>B&nbsp;</td><td valign=\'top\' headers=\'age\'>22&nbsp;</td><td valign=\'top\' headers=\'city\'>Columbia&nbsp;</td><td valign=\'top\' headers=\'state\'>MO&nbsp;</td></tr><tr class="B"> <td valign=\'top\' headers=\'LN\'>Ehler&nbsp;</td><td valign=\'top\' headers=\'FN\'>Rebecca&nbsp;</td><td valign=\'top\' headers=\'MN\'>Jo&nbsp;</td><td valign=\'top\' headers=\'gender\'>F&nbsp;</td><td valign=\'top\' headers=\'race\'>W&nbsp;</td><td valign=\'top\' headers=\'age\'>24&nbsp;</td><td valign=\'top\' headers=\'city\'>Columbia&nbsp;</td><td valign=\'top\' headers=\'state\'>MO&nbsp;</td></tr><tr class="A"> <td valign=\'top\' headers=\'LN\'>Espinoza-Ochoa&nbsp;</td><td valign=\'top\' headers=\'FN\'>Ramon&nbsp;</td><td valign=\'top\' headers=\'MN\'>&nbsp;</td><td valign=\'top\' headers=\'gender\'>M&nbsp;</td><td valign=\'top\' headers=\'race\'>H&nbsp;</td><td valign=\'top\' headers=\'age\'>43&nbsp;</td><td valign=\'top\' headers=\'city\'>Columbia&nbsp;</td><td valign=\'top\' headers=\'state\'>MO&nbsp;</td></tr><tr class="B"> <td valign=\'top\' headers=\'LN\'>Fields&nbsp;</td><td valign=\'top\' headers=\'FN\'>Edward&nbsp;</td><td valign=\'top\' headers=\'MN\'>Dewayne&nbsp;</td><td valign=\'top\' headers=\'gender\'>M&nbsp;</td><td valign=\'top\' headers=\'race\'>B&nbsp;</td><td valign=\'top\' headers=\'age\'>29&nbsp;</td><td valign=\'top\' headers=\'city\'>Kansas City&nbsp;</td><td valign=\'top\' headers=\'state\'>MO&nbsp;</td></tr><tr class="A"> <td valign=\'top\' headers=\'LN\'>Fisher&nbsp;</td><td valign=\'top\' headers=\'FN\'>Donald&nbsp;</td><td valign=\'top\' headers=\'MN\'>Wayne&nbsp;</td><td valign=\'top\' headers=\'gender\'>M&nbsp;</td><td valign=\'top\' headers=\'race\'>W&nbsp;</td><td valign=\'top\' headers=\'age\'>62&nbsp;</td><td valign=\'top\' headers=\'city\'>Ashland&nbsp;</td><td valign=\'top\' headers=\'state\'>MO&nbsp;</td></tr><tr class="B"> <td valign=\'top\' headers=\'LN\'>Fisher&nbsp;</td><td valign=\'top\' headers=\'FN\'>Mitchell&nbsp;</td><td valign=\'top\' headers=\'MN\'>Charles&nbsp;</td><td valign=\'top\' headers=\'gender\'>M&nbsp;</td><td valign=\'top\' headers=\'race\'>W&nbsp;</td><td valign=\'top\' headers=\'age\'>23&nbsp;</td><td valign=\'top\' headers=\'city\'>Columbia&nbsp;</td><td valign=\'top\' headers=\'state\'>MO&nbsp;</td></tr><tr class="A"> <td valign=\'top\' headers=\'LN\'>Foster&nbsp;</td><td valign=\'top\' headers=\'FN\'>Chasmen&nbsp;</td><td valign=\'top\' headers=\'MN\'>Edward&nbsp;</td><td valign=\'top\' headers=\'gender\'>M&nbsp;</td><td valign=\'top\' headers=\'race\'>B&nbsp;</td><td valign=\'top\' headers=\'age\'>24&nbsp;</td><td valign=\'top\' headers=\'city\'>Columbia&nbsp;</td><td valign=\'top\' headers=\'state\'>MO&nbsp;</td></tr><tr class="B"> <td valign=\'top\' headers=\'LN\'>Freeman&nbsp;</td><td valign=\'top\' headers=\'FN\'>Kenneth&nbsp;</td><td valign=\'top\' headers=\'MN\'>Jerome&nbsp;</td><td valign=\'top\' headers=\'gender\'>M&nbsp;</td><td valign=\'top\' headers=\'race\'>B&nbsp;</td><td valign=\'top\' headers=\'age\'>27&nbsp;</td><td valign=\'top\' headers=\'city\'>Columbia&nbsp;</td><td valign=\'top\' headers=\'state\'>MO&nbsp;</td></tr><tr class="A"> <td valign=\'top\' headers=\'LN\'>Garcia-Uresti&nbsp;</td><td valign=\'top\' headers=\'FN\'>Antonio&nbsp;</td><td valign=\'top\' headers=\'MN\'>&nbsp;</td><td valign=\'top\' headers=\'gender\'>M&nbsp;</td><td valign=\'top\' headers=\'race\'>H&nbsp;</td><td valign=\'top\' headers=\'age\'>32&nbsp;</td><td valign=\'top\' headers=\'city\'>Columbi&nbsp;</td><td valign=\'top\' headers=\'state\'>MO&nbsp;</td></tr><tr class="B"> <td valign=\'top\' headers=\'LN\'>Gaustad&nbsp;</td><td valign=\'top\' headers=\'FN\'>Jacqueline&nbsp;</td><td valign=\'top\' headers=\'MN\'>Kay&nbsp;</td><td valign=\'top\' headers=\'gender\'>F&nbsp;</td><td valign=\'top\' headers=\'race\'>W&nbsp;</td><td valign=\'top\' headers=\'age\'>49&nbsp;</td><td valign=\'top\' headers=\'city\'>Jeffeson City&nbsp;</td><td valign=\'top\' headers=\'state\'>MO&nbsp;</td></tr><tr class="A"> <td valign=\'top\' headers=\'LN\'>Gildehaus&nbsp;</td><td valign=\'top\' headers=\'FN\'>Danielle&nbsp;</td><td valign=\'top\' headers=\'MN\'>Marie&nbsp;</td><td valign=\'top\' headers=\'gender\'>F&nbsp;</td><td valign=\'top\' headers=\'race\'>W&nbsp;</td><td valign=\'top\' headers=\'age\'>38&nbsp;</td><td valign=\'top\' headers=\'city\'>Stclair&nbsp;</td><td valign=\'top\' headers=\'state\'>MO&nbsp;</td></tr><tr class="B"> <td valign=\'top\' headers=\'LN\'>Glover&nbsp;</td><td valign=\'top\' headers=\'FN\'>Damion&nbsp;</td><td valign=\'top\' headers=\'MN\'>Lawrence&nbsp;</td><td valign=\'top\' headers=\'gender\'>M&nbsp;</td><td valign=\'top\' headers=\'race\'>B&nbsp;</td><td valign=\'top\' headers=\'age\'>45&nbsp;</td><td valign=\'top\' headers=\'city\'>Moberly&nbsp;</td><td valign=\'top\' headers=\'state\'>MO&nbsp;</td></tr><tr class="A"> <td valign=\'top\' headers=\'LN\'>Gonzalez&nbsp;</td><td valign=\'top\' headers=\'FN\'>Miguel&nbsp;</td><td valign=\'top\' headers=\'MN\'>Meza&nbsp;</td><td valign=\'top\' headers=\'gender\'>M&nbsp;</td><td valign=\'top\' headers=\'race\'>H&nbsp;</td><td valign=\'top\' headers=\'age\'>36&nbsp;</td><td valign=\'top\' headers=\'city\'>Columbia&nbsp;</td><td valign=\'top\' headers=\'state\'>MO&nbsp;</td></tr><tr class="B"> <td valign=\'top\' headers=\'LN\'>Gonzalez-Gomez&nbsp;</td><td valign=\'top\' headers=\'FN\'>Deborah&nbsp;</td><td valign=\'top\' headers=\'MN\'>&nbsp;</td><td valign=\'top\' headers=\'gender\'>F&nbsp;</td><td valign=\'top\' headers=\'race\'>H&nbsp;</td><td valign=\'top\' headers=\'age\'>29&nbsp;</td><td valign=\'top\' headers=\'city\'>Columbia&nbsp;</td><td valign=\'top\' headers=\'state\'>MO&nbsp;</td></tr><tr class="A"> <td valign=\'top\' headers=\'LN\'>Grandberry&nbsp;</td><td valign=\'top\' headers=\'FN\'>Terrance&nbsp;</td><td valign=\'top\' headers=\'MN\'>Brandon&nbsp;</td><td valign=\'top\' headers=\'gender\'>M&nbsp;</td><td valign=\'top\' headers=\'race\'>B&nbsp;</td><td valign=\'top\' headers=\'age\'>26&nbsp;</td><td valign=\'top\' headers=\'city\'>Wichita&nbsp;</td><td valign=\'top\' headers=\'state\'>KS&nbsp;</td></tr><tr class="B"> <td valign=\'top\' headers=\'LN\'>Greaver&nbsp;</td><td valign=\'top\' headers=\'FN\'>Matthew&nbsp;</td><td valign=\'top\' headers=\'MN\'>George&nbsp;</td><td valign=\'top\' headers=\'gender\'>M&nbsp;</td><td valign=\'top\' headers=\'race\'>W&nbsp;</td><td valign=\'top\' headers=\'age\'>23&nbsp;</td><td valign=\'top\' headers=\'city\'>Eureka&nbsp;</td><td valign=\'top\' headers=\'state\'>MO&nbsp;</td></tr><tr class="A"> <td valign=\'top\' headers=\'LN\'>Green&nbsp;</td><td valign=\'top\' headers=\'FN\'>George&nbsp;</td><td valign=\'top\' headers=\'MN\'>Edwin&nbsp;</td><td valign=\'top\' headers=\'gender\'>M&nbsp;</td><td valign=\'top\' headers=\'race\'>W&nbsp;</td><td valign=\'top\' headers=\'age\'>65&nbsp;</td><td valign=\'top\' headers=\'city\'>Centralia&nbsp;</td><td valign=\'top\' headers=\'state\'>MO&nbsp;</td></tr><tr class="B"> <td valign=\'top\' headers=\'LN\'>Griffith&nbsp;</td><td valign=\'top\' headers=\'FN\'>Wesley&nbsp;</td><td valign=\'top\' headers=\'MN\'>Warren&nbsp;</td><td valign=\'top\' headers=\'gender\'>M&nbsp;</td><td valign=\'top\' headers=\'race\'>W&nbsp;</td><td valign=\'top\' headers=\'age\'>32&nbsp;</td><td valign=\'top\' headers=\'city\'>Jefferson City&nbsp;</td><td valign=\'top\' headers=\'state\'>MO&nbsp;</td></tr><tr class="A"> <td valign=\'top\' headers=\'LN\'>Guillen&nbsp;</td><td valign=\'top\' headers=\'FN\'>Moises&nbsp;</td><td valign=\'top\' headers=\'MN\'>Rodrigo&nbsp;</td><td valign=\'top\' headers=\'gender\'>M&nbsp;</td><td valign=\'top\' headers=\'race\'>H&nbsp;</td><td valign=\'top\' headers=\'age\'>23&nbsp;</td><td valign=\'top\' headers=\'city\'>Columbia&nbsp;</td><td valign=\'top\' headers=\'state\'>MO&nbsp;</td></tr><tr class="B"> <td valign=\'top\' headers=\'LN\'>Hampton&nbsp;</td><td valign=\'top\' headers=\'FN\'>Richard&nbsp;</td><td valign=\'top\' headers=\'MN\'>Wilson&nbsp;</td><td valign=\'top\' headers=\'gender\'>M&nbsp;</td><td valign=\'top\' headers=\'race\'>W&nbsp;</td><td valign=\'top\' headers=\'age\'>54&nbsp;</td><td valign=\'top\' headers=\'city\'>Columbia&nbsp;</td><td valign=\'top\' headers=\'state\'>MO&nbsp;</td></tr><tr class="A"> <td valign=\'top\' headers=\'LN\'>Hand&nbsp;</td><td valign=\'top\' headers=\'FN\'>Raymond&nbsp;</td><td valign=\'top\' headers=\'MN\'>Jason&nbsp;</td><td valign=\'top\' headers=\'gender\'>M&nbsp;</td><td valign=\'top\' headers=\'race\'>B&nbsp;</td><td valign=\'top\' headers=\'age\'>41&nbsp;</td><td valign=\'top\' headers=\'city\'>Columbia&nbsp;</td><td valign=\'top\' headers=\'state\'>MO&nbsp;</td></tr><tr class="B"> <td valign=\'top\' headers=\'LN\'>Harrison&nbsp;</td><td valign=\'top\' headers=\'FN\'>Jacob&nbsp;</td><td valign=\'top\' headers=\'MN\'>Adam&nbsp;</td><td valign=\'top\' headers=\'gender\'>M&nbsp;</td><td valign=\'top\' headers=\'race\'>W&nbsp;</td><td valign=\'top\' headers=\'age\'>25&nbsp;</td><td valign=\'top\' headers=\'city\'>Columbia&nbsp;</td><td valign=\'top\' headers=\'state\'>MO&nbsp;</td></tr><tr class="A"> <td valign=\'top\' headers=\'LN\'>Harvey&nbsp;</td><td valign=\'top\' headers=\'FN\'>Nicole&nbsp;</td><td valign=\'top\' headers=\'MN\'>Elizabeth&nbsp;</td><td valign=\'top\' headers=\'gender\'>F&nbsp;</td><td valign=\'top\' headers=\'race\'>B&nbsp;</td><td valign=\'top\' headers=\'age\'>30&nbsp;</td><td valign=\'top\' headers=\'city\'>Columbia&nbsp;</td><td valign=\'top\' headers=\'state\'>MO&nbsp;</td></tr><tr class="B"> <td valign=\'top\' headers=\'LN\'>Hayes&nbsp;</td><td valign=\'top\' headers=\'FN\'>Charles&nbsp;</td><td valign=\'top\' headers=\'MN\'>Everett&nbsp;</td><td valign=\'top\' headers=\'gender\'>M&nbsp;</td><td valign=\'top\' headers=\'race\'>B&nbsp;</td><td valign=\'top\' headers=\'age\'>24&nbsp;</td><td valign=\'top\' headers=\'city\'>Columbia&nbsp;</td><td valign=\'top\' headers=\'state\'>MO&nbsp;</td></tr><tr class="A"> <td valign=\'top\' headers=\'LN\'>Hedden&nbsp;</td><td valign=\'top\' headers=\'FN\'>Travis&nbsp;</td><td valign=\'top\' headers=\'MN\'>Wayne&nbsp;</td><td valign=\'top\' headers=\'gender\'>M&nbsp;</td><td valign=\'top\' headers=\'race\'>W&nbsp;</td><td valign=\'top\' headers=\'age\'>42&nbsp;</td><td valign=\'top\' headers=\'city\'>Columbia&nbsp;</td><td valign=\'top\' headers=\'state\'>MO&nbsp;</td></tr><tr class="B"> <td valign=\'top\' headers=\'LN\'>Henley&nbsp;</td><td valign=\'top\' headers=\'FN\'>Sonny&nbsp;</td><td valign=\'top\' headers=\'MN\'>James&nbsp;</td><td valign=\'top\' headers=\'gender\'>M&nbsp;</td><td valign=\'top\' headers=\'race\'>B&nbsp;</td><td valign=\'top\' headers=\'age\'>39&nbsp;</td><td valign=\'top\' headers=\'city\'>Columbia&nbsp;</td><td valign=\'top\' headers=\'state\'>MO&nbsp;</td></tr><tr class="A"> <td valign=\'top\' headers=\'LN\'>Henry&nbsp;</td><td valign=\'top\' headers=\'FN\'>Louis&nbsp;</td><td valign=\'top\' headers=\'MN\'>Dayle&nbsp;</td><td valign=\'top\' headers=\'gender\'>M&nbsp;</td><td valign=\'top\' headers=\'race\'>W&nbsp;</td><td valign=\'top\' headers=\'age\'>43&nbsp;</td><td valign=\'top\' headers=\'city\'>Columbia&nbsp;</td><td valign=\'top\' headers=\'state\'>MO&nbsp;</td></tr><tr class="B"> <td valign=\'top\' headers=\'LN\'>Hill&nbsp;</td><td valign=\'top\' headers=\'FN\'>Dyran&nbsp;</td><td valign=\'top\' headers=\'MN\'>Rashad&nbsp;</td><td valign=\'top\' headers=\'gender\'>M&nbsp;</td><td valign=\'top\' headers=\'race\'>B&nbsp;</td><td valign=\'top\' headers=\'age\'>18&nbsp;</td><td valign=\'top\' headers=\'city\'>Columbia&nbsp;</td><td valign=\'top\' headers=\'state\'>MO&nbsp;</td></tr><tr class="A"> <td valign=\'top\' headers=\'LN\'>Hoffman&nbsp;</td><td valign=\'top\' headers=\'FN\'>Craig&nbsp;</td><td valign=\'top\' headers=\'MN\'>David&nbsp;</td><td valign=\'top\' headers=\'gender\'>M&nbsp;</td><td valign=\'top\' headers=\'race\'>W&nbsp;</td><td valign=\'top\' headers=\'age\'>29&nbsp;</td><td valign=\'top\' headers=\'city\'>Wausau&nbsp;</td><td valign=\'top\' headers=\'state\'>WI&nbsp;</td></tr><tr class="B"> <td valign=\'top\' headers=\'LN\'>Hoffman&nbsp;</td><td valign=\'top\' headers=\'FN\'>Jarrod&nbsp;</td><td valign=\'top\' headers=\'MN\'>Don&nbsp;</td><td valign=\'top\' headers=\'gender\'>M&nbsp;</td><td valign=\'top\' headers=\'race\'>W&nbsp;</td><td valign=\'top\' headers=\'age\'>40&nbsp;</td><td valign=\'top\' headers=\'city\'>Fulton&nbsp;</td><td valign=\'top\' headers=\'state\'>MO&nbsp;</td></tr><tr class="A"> <td valign=\'top\' headers=\'LN\'>Hogan&nbsp;</td><td valign=\'top\' headers=\'FN\'>Glenn&nbsp;</td><td valign=\'top\' headers=\'MN\'>&nbsp;</td><td valign=\'top\' headers=\'gender\'>M&nbsp;</td><td valign=\'top\' headers=\'race\'>B&nbsp;</td><td valign=\'top\' headers=\'age\'>28&nbsp;</td><td valign=\'top\' headers=\'city\'>Fulton&nbsp;</td><td valign=\'top\' headers=\'state\'>MO&nbsp;</td></tr><tr class="B"> <td valign=\'top\' headers=\'LN\'>Holden-Wilkerson&nbsp;</td><td valign=\'top\' headers=\'FN\'>Shalamar&nbsp;</td><td valign=\'top\' headers=\'MN\'>Veronica&nbsp;</td><td valign=\'top\' headers=\'gender\'>F&nbsp;</td><td valign=\'top\' headers=\'race\'>B&nbsp;</td><td valign=\'top\' headers=\'age\'>28&nbsp;</td><td valign=\'top\' headers=\'city\'>Columbia&nbsp;</td><td valign=\'top\' headers=\'state\'>MO&nbsp;</td></tr><tr class="A"> <td valign=\'top\' headers=\'LN\'>Houston&nbsp;</td><td valign=\'top\' headers=\'FN\'>William&nbsp;</td><td valign=\'top\' headers=\'MN\'>Matthew&nbsp;</td><td valign=\'top\' headers=\'gender\'>M&nbsp;</td><td valign=\'top\' headers=\'race\'>W&nbsp;</td><td valign=\'top\' headers=\'age\'>35&nbsp;</td><td valign=\'top\' headers=\'city\'>Moberly&nbsp;</td><td valign=\'top\' headers=\'state\'>MO&nbsp;</td></tr><tr class="B"> <td valign=\'top\' headers=\'LN\'>Huggins&nbsp;</td><td valign=\'top\' headers=\'FN\'>Rashad&nbsp;</td><td valign=\'top\' headers=\'MN\'>Devon&nbsp;</td><td valign=\'top\' headers=\'gender\'>M&nbsp;</td><td valign=\'top\' headers=\'race\'>B&nbsp;</td><td valign=\'top\' headers=\'age\'>18&nbsp;</td><td valign=\'top\' headers=\'city\'>Columbia&nbsp;</td><td valign=\'top\' headers=\'state\'>MO&nbsp;</td></tr><tr class="A"> <td valign=\'top\' headers=\'LN\'>Hunter&nbsp;</td><td valign=\'top\' headers=\'FN\'>Lemuel&nbsp;</td><td valign=\'top\' headers=\'MN\'>Dean&nbsp;</td><td valign=\'top\' headers=\'gender\'>M&nbsp;</td><td valign=\'top\' headers=\'race\'>B&nbsp;</td><td valign=\'top\' headers=\'age\'>53&nbsp;</td><td valign=\'top\' headers=\'city\'>Columbia&nbsp;</td><td valign=\'top\' headers=\'state\'>MO&nbsp;</td></tr><tr class="B"> <td valign=\'top\' headers=\'LN\'>Jackson&nbsp;</td><td valign=\'top\' headers=\'FN\'>Merril&nbsp;</td><td valign=\'top\' headers=\'MN\'>Gene&nbsp;</td><td valign=\'top\' headers=\'gender\'>M&nbsp;</td><td valign=\'top\' headers=\'race\'>B&nbsp;</td><td valign=\'top\' headers=\'age\'>39&nbsp;</td><td valign=\'top\' headers=\'city\'>Columbia&nbsp;</td><td valign=\'top\' headers=\'state\'>MO&nbsp;</td></tr><tr class="A"> <td valign=\'top\' headers=\'LN\'>Jackson&nbsp;</td><td valign=\'top\' headers=\'FN\'>Steven&nbsp;</td><td valign=\'top\' headers=\'MN\'>Eugene&nbsp;</td><td valign=\'top\' headers=\'gender\'>M&nbsp;</td><td valign=\'top\' headers=\'race\'>B&nbsp;</td><td valign=\'top\' headers=\'age\'>32&nbsp;</td><td valign=\'top\' headers=\'city\'>Columbia&nbsp;</td><td valign=\'top\' headers=\'state\'>MO&nbsp;</td></tr><tr class="B"> <td valign=\'top\' headers=\'LN\'>James&nbsp;</td><td valign=\'top\' headers=\'FN\'>Crystal&nbsp;</td><td valign=\'top\' headers=\'MN\'>Dawn&nbsp;</td><td valign=\'top\' headers=\'gender\'>F&nbsp;</td><td valign=\'top\' headers=\'race\'>W&nbsp;</td><td valign=\'top\' headers=\'age\'>21&nbsp;</td><td valign=\'top\' headers=\'city\'>Columbia&nbsp;</td><td valign=\'top\' headers=\'state\'>MO&nbsp;</td></tr><tr class="A"> <td valign=\'top\' headers=\'LN\'>James&nbsp;</td><td valign=\'top\' headers=\'FN\'>Kelsey&nbsp;</td><td valign=\'top\' headers=\'MN\'>Aaron&nbsp;</td><td valign=\'top\' headers=\'gender\'>M&nbsp;</td><td valign=\'top\' headers=\'race\'>U&nbsp;</td><td valign=\'top\' headers=\'age\'>24&nbsp;</td><td valign=\'top\' headers=\'city\'>Columbia&nbsp;</td><td valign=\'top\' headers=\'state\'>MO&nbsp;</td></tr><tr class="B"> <td valign=\'top\' headers=\'LN\'>Johnson&nbsp;</td><td valign=\'top\' headers=\'FN\'>Kejuane&nbsp;</td><td valign=\'top\' headers=\'MN\'>Marshae&nbsp;</td><td valign=\'top\' headers=\'gender\'>M&nbsp;</td><td valign=\'top\' headers=\'race\'>B&nbsp;</td><td valign=\'top\' headers=\'age\'>17&nbsp;</td><td valign=\'top\' headers=\'city\'>Columbia&nbsp;</td><td valign=\'top\' headers=\'state\'>MO&nbsp;</td></tr><tr class="A"> <td valign=\'top\' headers=\'LN\'>Johnson&nbsp;</td><td valign=\'top\' headers=\'FN\'>Lynique&nbsp;</td><td valign=\'top\' headers=\'MN\'>Nichelle&nbsp;</td><td valign=\'top\' headers=\'gender\'>F&nbsp;</td><td valign=\'top\' headers=\'race\'>B&nbsp;</td><td valign=\'top\' headers=\'age\'>31&nbsp;</td><td valign=\'top\' headers=\'city\'>Columbia&nbsp;</td><td valign=\'top\' headers=\'state\'>MO&nbsp;</td></tr><tr class="B"> <td valign=\'top\' headers=\'LN\'>Johnson&nbsp;</td><td valign=\'top\' headers=\'FN\'>Pamela&nbsp;</td><td valign=\'top\' headers=\'MN\'>Yvette&nbsp;</td><td valign=\'top\' headers=\'gender\'>F&nbsp;</td><td valign=\'top\' headers=\'race\'>B&nbsp;</td><td valign=\'top\' headers=\'age\'>47&nbsp;</td><td valign=\'top\' headers=\'city\'>Columbia&nbsp;</td><td valign=\'top\' headers=\'state\'>MO&nbsp;</td></tr><tr class="A"> <td valign=\'top\' headers=\'LN\'>Johnson&nbsp;</td><td valign=\'top\' headers=\'FN\'>Raven&nbsp;</td><td valign=\'top\' headers=\'MN\'>Claire&nbsp;</td><td valign=\'top\' headers=\'gender\'>F&nbsp;</td><td valign=\'top\' headers=\'race\'>W&nbsp;</td><td valign=\'top\' headers=\'age\'>34&nbsp;</td><td valign=\'top\' headers=\'city\'>Columbia&nbsp;</td><td valign=\'top\' headers=\'state\'>MO&nbsp;</td></tr><tr class="B"> <td valign=\'top\' headers=\'LN\'>Johnson&nbsp;</td><td valign=\'top\' headers=\'FN\'>Torrey&nbsp;</td><td valign=\'top\' headers=\'MN\'>Lee&nbsp;</td><td valign=\'top\' headers=\'gender\'>M&nbsp;</td><td valign=\'top\' headers=\'race\'>B&nbsp;</td><td valign=\'top\' headers=\'age\'>44&nbsp;</td><td valign=\'top\' headers=\'city\'>Columbia&nbsp;</td><td valign=\'top\' headers=\'state\'>MO&nbsp;</td></tr><tr class="A"> <td valign=\'top\' headers=\'LN\'>Jones&nbsp;</td><td valign=\'top\' headers=\'FN\'>Chet&nbsp;</td><td valign=\'top\' headers=\'MN\'>Harley&nbsp;</td><td valign=\'top\' headers=\'gender\'>M&nbsp;</td><td valign=\'top\' headers=\'race\'>W&nbsp;</td><td valign=\'top\' headers=\'age\'>33&nbsp;</td><td valign=\'top\' headers=\'city\'>Columbia&nbsp;</td><td valign=\'top\' headers=\'state\'>MO&nbsp;</td></tr><tr class="B"> <td valign=\'top\' headers=\'LN\'>Jones&nbsp;</td><td valign=\'top\' headers=\'FN\'>Marquan&nbsp;</td><td valign=\'top\' headers=\'MN\'>Daquariea&nbsp;</td><td valign=\'top\' headers=\'gender\'>M&nbsp;</td><td valign=\'top\' headers=\'race\'>B&nbsp;</td><td valign=\'top\' headers=\'age\'>18&nbsp;</td><td valign=\'top\' headers=\'city\'>Columbia&nbsp;</td><td valign=\'top\' headers=\'state\'>MO&nbsp;</td></tr><tr class="A"> <td valign=\'top\' headers=\'LN\'>Jones&nbsp;</td><td valign=\'top\' headers=\'FN\'>Paulline&nbsp;</td><td valign=\'top\' headers=\'MN\'>Eugene&nbsp;</td><td valign=\'top\' headers=\'gender\'>F&nbsp;</td><td valign=\'top\' headers=\'race\'>W&nbsp;</td><td valign=\'top\' headers=\'age\'>36&nbsp;</td><td valign=\'top\' headers=\'city\'>Adrian&nbsp;</td><td valign=\'top\' headers=\'state\'>MO&nbsp;</td></tr><tr class="B"> <td valign=\'top\' headers=\'LN\'>Jones&nbsp;</td><td valign=\'top\' headers=\'FN\'>Tony&nbsp;</td><td valign=\'top\' headers=\'MN\'>Dean&nbsp;</td><td valign=\'top\' headers=\'gender\'>M&nbsp;</td><td valign=\'top\' headers=\'race\'>W&nbsp;</td><td valign=\'top\' headers=\'age\'>22&nbsp;</td><td valign=\'top\' headers=\'city\'>Sturgeon&nbsp;</td><td valign=\'top\' headers=\'state\'>MO&nbsp;</td></tr><tr class="A"> <td valign=\'top\' headers=\'LN\'>Jordan&nbsp;</td><td valign=\'top\' headers=\'FN\'>Corey&nbsp;</td><td valign=\'top\' headers=\'MN\'>Montez&nbsp;</td><td valign=\'top\' headers=\'gender\'>M&nbsp;</td><td valign=\'top\' headers=\'race\'>B&nbsp;</td><td valign=\'top\' headers=\'age\'>23&nbsp;</td><td valign=\'top\' headers=\'city\'>Columbia&nbsp;</td><td valign=\'top\' headers=\'state\'>MO&nbsp;</td></tr><tr class="B"> <td valign=\'top\' headers=\'LN\'>Khomyak&nbsp;</td><td valign=\'top\' headers=\'FN\'>Radion&nbsp;</td><td valign=\'top\' headers=\'MN\'>Alexander&nbsp;</td><td valign=\'top\' headers=\'gender\'>M&nbsp;</td><td valign=\'top\' headers=\'race\'>W&nbsp;</td><td valign=\'top\' headers=\'age\'>24&nbsp;</td><td valign=\'top\' headers=\'city\'>Everett&nbsp;</td><td valign=\'top\' headers=\'state\'>WA&nbsp;</td></tr><tr class="A"> <td valign=\'top\' headers=\'LN\'>Killy&nbsp;</td><td valign=\'top\' headers=\'FN\'>Alex&nbsp;</td><td valign=\'top\' headers=\'MN\'>Platzer&nbsp;</td><td valign=\'top\' headers=\'gender\'>M&nbsp;</td><td valign=\'top\' headers=\'race\'>W&nbsp;</td><td valign=\'top\' headers=\'age\'>27&nbsp;</td><td valign=\'top\' headers=\'city\'>Columbia&nbsp;</td><td valign=\'top\' headers=\'state\'>MO&nbsp;</td></tr><tr class="B"> <td valign=\'top\' headers=\'LN\'>Kirk&nbsp;</td><td valign=\'top\' headers=\'FN\'>Chad&nbsp;</td><td valign=\'top\' headers=\'MN\'>Allen&nbsp;</td><td valign=\'top\' headers=\'gender\'>M&nbsp;</td><td valign=\'top\' headers=\'race\'>W&nbsp;</td><td valign=\'top\' headers=\'age\'>28&nbsp;</td><td valign=\'top\' headers=\'city\'>Houston&nbsp;</td><td valign=\'top\' headers=\'state\'>MO&nbsp;</td></tr><tr class="A"> <td valign=\'top\' headers=\'LN\'>Knowles&nbsp;</td><td valign=\'top\' headers=\'FN\'>Jacob&nbsp;</td><td valign=\'top\' headers=\'MN\'>William&nbsp;</td><td valign=\'top\' headers=\'gender\'>M&nbsp;</td><td valign=\'top\' headers=\'race\'>W&nbsp;</td><td valign=\'top\' headers=\'age\'>19&nbsp;</td><td valign=\'top\' headers=\'city\'>Columbia&nbsp;</td><td valign=\'top\' headers=\'state\'>MO&nbsp;</td></tr><tr class="B"> <td valign=\'top\' headers=\'LN\'>Kowalski&nbsp;</td><td valign=\'top\' headers=\'FN\'>Robert&nbsp;</td><td valign=\'top\' headers=\'MN\'>Shane&nbsp;</td><td valign=\'top\' headers=\'gender\'>M&nbsp;</td><td valign=\'top\' headers=\'race\'>W&nbsp;</td><td valign=\'top\' headers=\'age\'>21&nbsp;</td><td valign=\'top\' headers=\'city\'>Columbia&nbsp;</td><td valign=\'top\' headers=\'state\'>MO&nbsp;</td></tr><tr class="A"> <td valign=\'top\' headers=\'LN\'>Kysar&nbsp;</td><td valign=\'top\' headers=\'FN\'>Cody&nbsp;</td><td valign=\'top\' headers=\'MN\'>Wayne&nbsp;</td><td valign=\'top\' headers=\'gender\'>M&nbsp;</td><td valign=\'top\' headers=\'race\'>W&nbsp;</td><td valign=\'top\' headers=\'age\'>22&nbsp;</td><td valign=\'top\' headers=\'city\'>Mexico&nbsp;</td><td valign=\'top\' headers=\'state\'>MO&nbsp;</td></tr><tr class="B"> <td valign=\'top\' headers=\'LN\'>Lancaster&nbsp;</td><td valign=\'top\' headers=\'FN\'>Keith&nbsp;</td><td valign=\'top\' headers=\'MN\'>Aaron&nbsp;</td><td valign=\'top\' headers=\'gender\'>M&nbsp;</td><td valign=\'top\' headers=\'race\'>W&nbsp;</td><td valign=\'top\' headers=\'age\'>29&nbsp;</td><td valign=\'top\' headers=\'city\'>Centralia&nbsp;</td><td valign=\'top\' headers=\'state\'>MO&nbsp;</td></tr><tr class="A"> <td valign=\'top\' headers=\'LN\'>Lavergne&nbsp;</td><td valign=\'top\' headers=\'FN\'>Adam&nbsp;</td><td valign=\'top\' headers=\'MN\'>Marcus&nbsp;</td><td valign=\'top\' headers=\'gender\'>M&nbsp;</td><td valign=\'top\' headers=\'race\'>W&nbsp;</td><td valign=\'top\' headers=\'age\'>42&nbsp;</td><td valign=\'top\' headers=\'city\'>Columbia&nbsp;</td><td valign=\'top\' headers=\'state\'>MO&nbsp;</td></tr><tr class="B"> <td valign=\'top\' headers=\'LN\'>Lawson&nbsp;</td><td valign=\'top\' headers=\'FN\'>Anson&nbsp;</td><td valign=\'top\' headers=\'MN\'>Bryan&nbsp;</td><td valign=\'top\' headers=\'gender\'>M&nbsp;</td><td valign=\'top\' headers=\'race\'>B&nbsp;</td><td valign=\'top\' headers=\'age\'>51&nbsp;</td><td valign=\'top\' headers=\'city\'>Columbia&nbsp;</td><td valign=\'top\' headers=\'state\'>MO&nbsp;</td></tr><tr class="A"> <td valign=\'top\' headers=\'LN\'>Lee&nbsp;</td><td valign=\'top\' headers=\'FN\'>Charles&nbsp;</td><td valign=\'top\' headers=\'MN\'>Edward&nbsp;</td><td valign=\'top\' headers=\'gender\'>M&nbsp;</td><td valign=\'top\' headers=\'race\'>B&nbsp;</td><td valign=\'top\' headers=\'age\'>56&nbsp;</td><td valign=\'top\' headers=\'city\'>Columbia&nbsp;</td><td valign=\'top\' headers=\'state\'>MO&nbsp;</td></tr><tr class="B"> <td valign=\'top\' headers=\'LN\'>Lee&nbsp;</td><td valign=\'top\' headers=\'FN\'>Jerol&nbsp;</td><td valign=\'top\' headers=\'MN\'>Jermaine&nbsp;</td><td valign=\'top\' headers=\'gender\'>M&nbsp;</td><td valign=\'top\' headers=\'race\'>B&nbsp;</td><td valign=\'top\' headers=\'age\'>33&nbsp;</td><td valign=\'top\' headers=\'city\'>Columbia&nbsp;</td><td valign=\'top\' headers=\'state\'>MO&nbsp;</td></tr><tr class="A"> <td valign=\'top\' headers=\'LN\'>Lera&nbsp;</td><td valign=\'top\' headers=\'FN\'>Lester&nbsp;</td><td valign=\'top\' headers=\'MN\'>&nbsp;</td><td valign=\'top\' headers=\'gender\'>M&nbsp;</td><td valign=\'top\' headers=\'race\'>H&nbsp;</td><td valign=\'top\' headers=\'age\'>32&nbsp;</td><td valign=\'top\' headers=\'city\'>Columbia&nbsp;</td><td valign=\'top\' headers=\'state\'>MO&nbsp;</td></tr><tr class="B"> <td valign=\'top\' headers=\'LN\'>Lewis&nbsp;</td><td valign=\'top\' headers=\'FN\'>Casey&nbsp;</td><td valign=\'top\' headers=\'MN\'>Duane&nbsp;</td><td valign=\'top\' headers=\'gender\'>M&nbsp;</td><td valign=\'top\' headers=\'race\'>I&nbsp;</td><td valign=\'top\' headers=\'age\'>25&nbsp;</td><td valign=\'top\' headers=\'city\'>Stonewall&nbsp;</td><td valign=\'top\' headers=\'state\'>OK&nbsp;</td></tr><tr class="A"> <td valign=\'top\' headers=\'LN\'>Lewis&nbsp;</td><td valign=\'top\' headers=\'FN\'>Randall&nbsp;</td><td valign=\'top\' headers=\'MN\'>Wayne&nbsp;</td><td valign=\'top\' headers=\'gender\'>M&nbsp;</td><td valign=\'top\' headers=\'race\'>W&nbsp;</td><td valign=\'top\' headers=\'age\'>47&nbsp;</td><td valign=\'top\' headers=\'city\'>Harrisburg&nbsp;</td><td valign=\'top\' headers=\'state\'>MO&nbsp;</td></tr><tr class="B"> <td valign=\'top\' headers=\'LN\'>Long&nbsp;</td><td valign=\'top\' headers=\'FN\'>Matthew&nbsp;</td><td valign=\'top\' headers=\'MN\'>Adam&nbsp;</td><td valign=\'top\' headers=\'gender\'>M&nbsp;</td><td valign=\'top\' headers=\'race\'>W&nbsp;</td><td valign=\'top\' headers=\'age\'>31&nbsp;</td><td valign=\'top\' headers=\'city\'>Columbia&nbsp;</td><td valign=\'top\' headers=\'state\'>MO&nbsp;</td></tr><tr class="A"> <td valign=\'top\' headers=\'LN\'>Loux&nbsp;</td><td valign=\'top\' headers=\'FN\'>Robert&nbsp;</td><td valign=\'top\' headers=\'MN\'>Joseph&nbsp;</td><td valign=\'top\' headers=\'gender\'>M&nbsp;</td><td valign=\'top\' headers=\'race\'>W&nbsp;</td><td valign=\'top\' headers=\'age\'>51&nbsp;</td><td valign=\'top\' headers=\'city\'>Columbia&nbsp;</td><td valign=\'top\' headers=\'state\'>MO&nbsp;</td></tr><tr class="B"> <td valign=\'top\' headers=\'LN\'>Loving&nbsp;</td><td valign=\'top\' headers=\'FN\'>Daryl&nbsp;</td><td valign=\'top\' headers=\'MN\'>Okeefe&nbsp;</td><td valign=\'top\' headers=\'gender\'>M&nbsp;</td><td valign=\'top\' headers=\'race\'>B&nbsp;</td><td valign=\'top\' headers=\'age\'>53&nbsp;</td><td valign=\'top\' headers=\'city\'>Columbia&nbsp;</td><td valign=\'top\' headers=\'state\'>MO&nbsp;</td></tr><tr class="A"> <td valign=\'top\' headers=\'LN\'>Lynch&nbsp;</td><td valign=\'top\' headers=\'FN\'>Jeffrey&nbsp;</td><td valign=\'top\' headers=\'MN\'>Salvadore W&nbsp;</td><td valign=\'top\' headers=\'gender\'>M&nbsp;</td><td valign=\'top\' headers=\'race\'>W&nbsp;</td><td valign=\'top\' headers=\'age\'>43&nbsp;</td><td valign=\'top\' headers=\'city\'>Columbia&nbsp;</td><td valign=\'top\' headers=\'state\'>MO&nbsp;</td></tr><tr class="B"> <td valign=\'top\' headers=\'LN\'>Masters&nbsp;</td><td valign=\'top\' headers=\'FN\'>Phillip&nbsp;</td><td valign=\'top\' headers=\'MN\'>Jacob&nbsp;</td><td valign=\'top\' headers=\'gender\'>M&nbsp;</td><td valign=\'top\' headers=\'race\'>W&nbsp;</td><td valign=\'top\' headers=\'age\'>33&nbsp;</td><td valign=\'top\' headers=\'city\'>Columbia&nbsp;</td><td valign=\'top\' headers=\'state\'>MO&nbsp;</td></tr><tr class="A"> <td valign=\'top\' headers=\'LN\'>Maupin&nbsp;</td><td valign=\'top\' headers=\'FN\'>Dustin&nbsp;</td><td valign=\'top\' headers=\'MN\'>James&nbsp;</td><td valign=\'top\' headers=\'gender\'>M&nbsp;</td><td valign=\'top\' headers=\'race\'>W&nbsp;</td><td valign=\'top\' headers=\'age\'>33&nbsp;</td><td valign=\'top\' headers=\'city\'>Fulton&nbsp;</td><td valign=\'top\' headers=\'state\'>MO&nbsp;</td></tr><tr class="B"> <td valign=\'top\' headers=\'LN\'>McBee&nbsp;</td><td valign=\'top\' headers=\'FN\'>Zachary&nbsp;</td><td valign=\'top\' headers=\'MN\'>Lane&nbsp;</td><td valign=\'top\' headers=\'gender\'>M&nbsp;</td><td valign=\'top\' headers=\'race\'>W&nbsp;</td><td valign=\'top\' headers=\'age\'>25&nbsp;</td><td valign=\'top\' headers=\'city\'>Higbee&nbsp;</td><td valign=\'top\' headers=\'state\'>MO&nbsp;</td></tr><tr class="A"> <td valign=\'top\' headers=\'LN\'>McEachern&nbsp;</td><td valign=\'top\' headers=\'FN\'>Cody&nbsp;</td><td valign=\'top\' headers=\'MN\'>Joseph&nbsp;</td><td valign=\'top\' headers=\'gender\'>M&nbsp;</td><td valign=\'top\' headers=\'race\'>W&nbsp;</td><td valign=\'top\' headers=\'age\'>22&nbsp;</td><td valign=\'top\' headers=\'city\'>Columbia&nbsp;</td><td valign=\'top\' headers=\'state\'>MO&nbsp;</td></tr><tr class="B"> <td valign=\'top\' headers=\'LN\'>McHugh&nbsp;</td><td valign=\'top\' headers=\'FN\'>Alexis&nbsp;</td><td valign=\'top\' headers=\'MN\'>Paige&nbsp;</td><td valign=\'top\' headers=\'gender\'>F&nbsp;</td><td valign=\'top\' headers=\'race\'>W&nbsp;</td><td valign=\'top\' headers=\'age\'>21&nbsp;</td><td valign=\'top\' headers=\'city\'>Columbia&nbsp;</td><td valign=\'top\' headers=\'state\'>MO&nbsp;</td></tr><tr class="A"> <td valign=\'top\' headers=\'LN\'>McTye&nbsp;</td><td valign=\'top\' headers=\'FN\'>Vondra&nbsp;</td><td valign=\'top\' headers=\'MN\'>Simone&nbsp;</td><td valign=\'top\' headers=\'gender\'>F&nbsp;</td><td valign=\'top\' headers=\'race\'>B&nbsp;</td><td valign=\'top\' headers=\'age\'>30&nbsp;</td><td valign=\'top\' headers=\'city\'>Columbia&nbsp;</td><td valign=\'top\' headers=\'state\'>MO&nbsp;</td></tr><tr class="B"> <td valign=\'top\' headers=\'LN\'>Meadows&nbsp;</td><td valign=\'top\' headers=\'FN\'>John&nbsp;</td><td valign=\'top\' headers=\'MN\'>Dean&nbsp;</td><td valign=\'top\' headers=\'gender\'>M&nbsp;</td><td valign=\'top\' headers=\'race\'>W&nbsp;</td><td valign=\'top\' headers=\'age\'>45&nbsp;</td><td valign=\'top\' headers=\'city\'>Columbia&nbsp;</td><td valign=\'top\' headers=\'state\'>MO&nbsp;</td></tr><tr class="A"> <td valign=\'top\' headers=\'LN\'>Melton&nbsp;</td><td valign=\'top\' headers=\'FN\'>Octavia&nbsp;</td><td valign=\'top\' headers=\'MN\'>Marie&nbsp;</td><td valign=\'top\' headers=\'gender\'>F&nbsp;</td><td valign=\'top\' headers=\'race\'>W&nbsp;</td><td valign=\'top\' headers=\'age\'>29&nbsp;</td><td valign=\'top\' headers=\'city\'>Columbia&nbsp;</td><td valign=\'top\' headers=\'state\'>MO&nbsp;</td></tr><tr class="B"> <td valign=\'top\' headers=\'LN\'>Mendez-Castaneda&nbsp;</td><td valign=\'top\' headers=\'FN\'>Jesus&nbsp;</td><td valign=\'top\' headers=\'MN\'>Artu&nbsp;</td><td valign=\'top\' headers=\'gender\'>M&nbsp;</td><td valign=\'top\' headers=\'race\'>H&nbsp;</td><td valign=\'top\' headers=\'age\'>26&nbsp;</td><td valign=\'top\' headers=\'city\'>Columbia&nbsp;</td><td valign=\'top\' headers=\'state\'>MO&nbsp;</td></tr><tr class="A"> <td valign=\'top\' headers=\'LN\'>Midgyett&nbsp;</td><td valign=\'top\' headers=\'FN\'>Timothy&nbsp;</td><td valign=\'top\' headers=\'MN\'>Scott&nbsp;</td><td valign=\'top\' headers=\'gender\'>M&nbsp;</td><td valign=\'top\' headers=\'race\'>B&nbsp;</td><td valign=\'top\' headers=\'age\'>18&nbsp;</td><td valign=\'top\' headers=\'city\'>Columbia&nbsp;</td><td valign=\'top\' headers=\'state\'>MO&nbsp;</td></tr><tr class="B"> <td valign=\'top\' headers=\'LN\'>Miller&nbsp;</td><td valign=\'top\' headers=\'FN\'>Justin&nbsp;</td><td valign=\'top\' headers=\'MN\'>Montrell&nbsp;</td><td valign=\'top\' headers=\'gender\'>M&nbsp;</td><td valign=\'top\' headers=\'race\'>B&nbsp;</td><td valign=\'top\' headers=\'age\'>28&nbsp;</td><td valign=\'top\' headers=\'city\'>Columbia&nbsp;</td><td valign=\'top\' headers=\'state\'>MO&nbsp;</td></tr><tr class="A"> <td valign=\'top\' headers=\'LN\'>Mock&nbsp;</td><td valign=\'top\' headers=\'FN\'>Ashley&nbsp;</td><td valign=\'top\' headers=\'MN\'>Blair&nbsp;</td><td valign=\'top\' headers=\'gender\'>F&nbsp;</td><td valign=\'top\' headers=\'race\'>W&nbsp;</td><td valign=\'top\' headers=\'age\'>32&nbsp;</td><td valign=\'top\' headers=\'city\'>Columbia&nbsp;</td><td valign=\'top\' headers=\'state\'>MO&nbsp;</td></tr><tr class="B"> <td valign=\'top\' headers=\'LN\'>Moeller&nbsp;</td><td valign=\'top\' headers=\'FN\'>Steven&nbsp;</td><td valign=\'top\' headers=\'MN\'>Ray&nbsp;</td><td valign=\'top\' headers=\'gender\'>M&nbsp;</td><td valign=\'top\' headers=\'race\'>W&nbsp;</td><td valign=\'top\' headers=\'age\'>54&nbsp;</td><td valign=\'top\' headers=\'city\'>Columbia&nbsp;</td><td valign=\'top\' headers=\'state\'>MO&nbsp;</td></tr><tr class="A"> <td valign=\'top\' headers=\'LN\'>Mohamed&nbsp;</td><td valign=\'top\' headers=\'FN\'>Musab&nbsp;</td><td valign=\'top\' headers=\'MN\'>Abdalla M&nbsp;</td><td valign=\'top\' headers=\'gender\'>M&nbsp;</td><td valign=\'top\' headers=\'race\'>B&nbsp;</td><td valign=\'top\' headers=\'age\'>27&nbsp;</td><td valign=\'top\' headers=\'city\'>Columbia&nbsp;</td><td valign=\'top\' headers=\'state\'>MO&nbsp;</td></tr><tr class="B"> <td valign=\'top\' headers=\'LN\'>Moore&nbsp;</td><td valign=\'top\' headers=\'FN\'>Keenan&nbsp;</td><td valign=\'top\' headers=\'MN\'>Tremain&nbsp;</td><td valign=\'top\' headers=\'gender\'>M&nbsp;</td><td valign=\'top\' headers=\'race\'>B&nbsp;</td><td valign=\'top\' headers=\'age\'>21&nbsp;</td><td valign=\'top\' headers=\'city\'>Columbia&nbsp;</td><td valign=\'top\' headers=\'state\'>MO&nbsp;</td></tr><tr class="A"> <td valign=\'top\' headers=\'LN\'>Morris&nbsp;</td><td valign=\'top\' headers=\'FN\'>Jacob&nbsp;</td><td valign=\'top\' headers=\'MN\'>Christ&nbsp;</td><td valign=\'top\' headers=\'gender\'>M&nbsp;</td><td valign=\'top\' headers=\'race\'>W&nbsp;</td><td valign=\'top\' headers=\'age\'>20&nbsp;</td><td valign=\'top\' headers=\'city\'>Columbia&nbsp;</td><td valign=\'top\' headers=\'state\'>MO&nbsp;</td></tr><tr class="B"> <td valign=\'top\' headers=\'LN\'>Moxley&nbsp;</td><td valign=\'top\' headers=\'FN\'>Steve&nbsp;</td><td valign=\'top\' headers=\'MN\'>Duane&nbsp;</td><td valign=\'top\' headers=\'gender\'>M&nbsp;</td><td valign=\'top\' headers=\'race\'>W&nbsp;</td><td valign=\'top\' headers=\'age\'>54&nbsp;</td><td valign=\'top\' headers=\'city\'>Fulton&nbsp;</td><td valign=\'top\' headers=\'state\'>MO&nbsp;</td></tr><tr class="A"> <td valign=\'top\' headers=\'LN\'>Munzo&nbsp;</td><td valign=\'top\' headers=\'FN\'>Andres&nbsp;</td><td valign=\'top\' headers=\'MN\'>Catala&nbsp;</td><td valign=\'top\' headers=\'gender\'>M&nbsp;</td><td valign=\'top\' headers=\'race\'>B&nbsp;</td><td valign=\'top\' headers=\'age\'>26&nbsp;</td><td valign=\'top\' headers=\'city\'>Columbia&nbsp;</td><td valign=\'top\' headers=\'state\'>MO&nbsp;</td></tr><tr class="B"> <td valign=\'top\' headers=\'LN\'>Murray&nbsp;</td><td valign=\'top\' headers=\'FN\'>Joshua&nbsp;</td><td valign=\'top\' headers=\'MN\'>Dewayne&nbsp;</td><td valign=\'top\' headers=\'gender\'>M&nbsp;</td><td valign=\'top\' headers=\'race\'>W&nbsp;</td><td valign=\'top\' headers=\'age\'>19&nbsp;</td><td valign=\'top\' headers=\'city\'>Columbia&nbsp;</td><td valign=\'top\' headers=\'state\'>MO&nbsp;</td></tr><tr class="A"> <td valign=\'top\' headers=\'LN\'>Nash&nbsp;</td><td valign=\'top\' headers=\'FN\'>Walter&nbsp;</td><td valign=\'top\' headers=\'MN\'>Shaquille&nbsp;</td><td valign=\'top\' headers=\'gender\'>M&nbsp;</td><td valign=\'top\' headers=\'race\'>B&nbsp;</td><td valign=\'top\' headers=\'age\'>19&nbsp;</td><td valign=\'top\' headers=\'city\'>Columbia&nbsp;</td><td valign=\'top\' headers=\'state\'>MO&nbsp;</td></tr><tr class="B"> <td valign=\'top\' headers=\'LN\'>Negrete&nbsp;</td><td valign=\'top\' headers=\'FN\'>Antonio&nbsp;</td><td valign=\'top\' headers=\'MN\'>Junior&nbsp;</td><td valign=\'top\' headers=\'gender\'>M&nbsp;</td><td valign=\'top\' headers=\'race\'>H&nbsp;</td><td valign=\'top\' headers=\'age\'>25&nbsp;</td><td valign=\'top\' headers=\'city\'>Kansas City&nbsp;</td><td valign=\'top\' headers=\'state\'>MO&nbsp;</td></tr><tr class="A"> <td valign=\'top\' headers=\'LN\'>Nelson&nbsp;</td><td valign=\'top\' headers=\'FN\'>James&nbsp;</td><td valign=\'top\' headers=\'MN\'>Richard&nbsp;</td><td valign=\'top\' headers=\'gender\'>M&nbsp;</td><td valign=\'top\' headers=\'race\'>W&nbsp;</td><td valign=\'top\' headers=\'age\'>31&nbsp;</td><td valign=\'top\' headers=\'city\'>Columbia&nbsp;</td><td valign=\'top\' headers=\'state\'>MO&nbsp;</td></tr><tr class="B"> <td valign=\'top\' headers=\'LN\'>Newsome&nbsp;</td><td valign=\'top\' headers=\'FN\'>Albert&nbsp;</td><td valign=\'top\' headers=\'MN\'>William&nbsp;</td><td valign=\'top\' headers=\'gender\'>M&nbsp;</td><td valign=\'top\' headers=\'race\'>B&nbsp;</td><td valign=\'top\' headers=\'age\'>31&nbsp;</td><td valign=\'top\' headers=\'city\'>Columbia&nbsp;</td><td valign=\'top\' headers=\'state\'>MO&nbsp;</td></tr><tr class="A"> <td valign=\'top\' headers=\'LN\'>Nunes&nbsp;</td><td valign=\'top\' headers=\'FN\'>Anthony&nbsp;</td><td valign=\'top\' headers=\'MN\'>Levi&nbsp;</td><td valign=\'top\' headers=\'gender\'>M&nbsp;</td><td valign=\'top\' headers=\'race\'>W&nbsp;</td><td valign=\'top\' headers=\'age\'>19&nbsp;</td><td valign=\'top\' headers=\'city\'>Columbia&nbsp;</td><td valign=\'top\' headers=\'state\'>MO&nbsp;</td></tr><tr class="B"> <td valign=\'top\' headers=\'LN\'>Parish&nbsp;</td><td valign=\'top\' headers=\'FN\'>Howard&nbsp;</td><td valign=\'top\' headers=\'MN\'>Franklin&nbsp;</td><td valign=\'top\' headers=\'gender\'>M&nbsp;</td><td valign=\'top\' headers=\'race\'>W&nbsp;</td><td valign=\'top\' headers=\'age\'>75&nbsp;</td><td valign=\'top\' headers=\'city\'>Columbia&nbsp;</td><td valign=\'top\' headers=\'state\'>MO&nbsp;</td></tr><tr class="A"> <td valign=\'top\' headers=\'LN\'>Paulsen&nbsp;</td><td valign=\'top\' headers=\'FN\'>John&nbsp;</td><td valign=\'top\' headers=\'MN\'>Wilson&nbsp;</td><td valign=\'top\' headers=\'gender\'>M&nbsp;</td><td valign=\'top\' headers=\'race\'>W&nbsp;</td><td valign=\'top\' headers=\'age\'>30&nbsp;</td><td valign=\'top\' headers=\'city\'>Columbia&nbsp;</td><td valign=\'top\' headers=\'state\'>MO&nbsp;</td></tr><tr class="B"> <td valign=\'top\' headers=\'LN\'>Paxton&nbsp;</td><td valign=\'top\' headers=\'FN\'>David&nbsp;</td><td valign=\'top\' headers=\'MN\'>William&nbsp;</td><td valign=\'top\' headers=\'gender\'>M&nbsp;</td><td valign=\'top\' headers=\'race\'>W&nbsp;</td><td valign=\'top\' headers=\'age\'>51&nbsp;</td><td valign=\'top\' headers=\'city\'>Columbia&nbsp;</td><td valign=\'top\' headers=\'state\'>MO&nbsp;</td></tr><tr class="A"> <td valign=\'top\' headers=\'LN\'>Pearson&nbsp;</td><td valign=\'top\' headers=\'FN\'>Jeffrey&nbsp;</td><td valign=\'top\' headers=\'MN\'>Kenneth&nbsp;</td><td valign=\'top\' headers=\'gender\'>M&nbsp;</td><td valign=\'top\' headers=\'race\'>W&nbsp;</td><td valign=\'top\' headers=\'age\'>30&nbsp;</td><td valign=\'top\' headers=\'city\'>Fulton&nbsp;</td><td valign=\'top\' headers=\'state\'>MO&nbsp;</td></tr><tr class="B"> <td valign=\'top\' headers=\'LN\'>Pete&nbsp;</td><td valign=\'top\' headers=\'FN\'>Kevin&nbsp;</td><td valign=\'top\' headers=\'MN\'>Christopher&nbsp;</td><td valign=\'top\' headers=\'gender\'>M&nbsp;</td><td valign=\'top\' headers=\'race\'>W&nbsp;</td><td valign=\'top\' headers=\'age\'>41&nbsp;</td><td valign=\'top\' headers=\'city\'>Columbia&nbsp;</td><td valign=\'top\' headers=\'state\'>MO&nbsp;</td></tr><tr class="A"> <td valign=\'top\' headers=\'LN\'>Petty&nbsp;</td><td valign=\'top\' headers=\'FN\'>Allan&nbsp;</td><td valign=\'top\' headers=\'MN\'>Lamont&nbsp;</td><td valign=\'top\' headers=\'gender\'>M&nbsp;</td><td valign=\'top\' headers=\'race\'>B&nbsp;</td><td valign=\'top\' headers=\'age\'>22&nbsp;</td><td valign=\'top\' headers=\'city\'>Columbia&nbsp;</td><td valign=\'top\' headers=\'state\'>MO&nbsp;</td></tr><tr class="B"> <td valign=\'top\' headers=\'LN\'>Proctor&nbsp;</td><td valign=\'top\' headers=\'FN\'>Matthew&nbsp;</td><td valign=\'top\' headers=\'MN\'>Crews&nbsp;</td><td valign=\'top\' headers=\'gender\'>M&nbsp;</td><td valign=\'top\' headers=\'race\'>W&nbsp;</td><td valign=\'top\' headers=\'age\'>23&nbsp;</td><td valign=\'top\' headers=\'city\'>Kansas City&nbsp;</td><td valign=\'top\' headers=\'state\'>KS&nbsp;</td></tr><tr class="A"> <td valign=\'top\' headers=\'LN\'>Pruneda&nbsp;</td><td valign=\'top\' headers=\'FN\'>Eric&nbsp;</td><td valign=\'top\' headers=\'MN\'>Joseph&nbsp;</td><td valign=\'top\' headers=\'gender\'>M&nbsp;</td><td valign=\'top\' headers=\'race\'>H&nbsp;</td><td valign=\'top\' headers=\'age\'>32&nbsp;</td><td valign=\'top\' headers=\'city\'>Columbia&nbsp;</td><td valign=\'top\' headers=\'state\'>MO&nbsp;</td></tr><tr class="B"> <td valign=\'top\' headers=\'LN\'>Rathburn&nbsp;</td><td valign=\'top\' headers=\'FN\'>Quinton&nbsp;</td><td valign=\'top\' headers=\'MN\'>Ryan&nbsp;</td><td valign=\'top\' headers=\'gender\'>M&nbsp;</td><td valign=\'top\' headers=\'race\'>W&nbsp;</td><td valign=\'top\' headers=\'age\'>34&nbsp;</td><td valign=\'top\' headers=\'city\'>Columbia&nbsp;</td><td valign=\'top\' headers=\'state\'>MO&nbsp;</td></tr><tr class="A"> <td valign=\'top\' headers=\'LN\'>Redden&nbsp;</td><td valign=\'top\' headers=\'FN\'>Brandon&nbsp;</td><td valign=\'top\' headers=\'MN\'>Montez&nbsp;</td><td valign=\'top\' headers=\'gender\'>M&nbsp;</td><td valign=\'top\' headers=\'race\'>B&nbsp;</td><td valign=\'top\' headers=\'age\'>31&nbsp;</td><td valign=\'top\' headers=\'city\'>Ashland&nbsp;</td><td valign=\'top\' headers=\'state\'>MO&nbsp;</td></tr><tr class="B"> <td valign=\'top\' headers=\'LN\'>Reese&nbsp;</td><td valign=\'top\' headers=\'FN\'>Daniel&nbsp;</td><td valign=\'top\' headers=\'MN\'>Lee&nbsp;</td><td valign=\'top\' headers=\'gender\'>M&nbsp;</td><td valign=\'top\' headers=\'race\'>W&nbsp;</td><td valign=\'top\' headers=\'age\'>30&nbsp;</td><td valign=\'top\' headers=\'city\'>Columbia&nbsp;</td><td valign=\'top\' headers=\'state\'>MO&nbsp;</td></tr><tr class="A"> <td valign=\'top\' headers=\'LN\'>Riley&nbsp;</td><td valign=\'top\' headers=\'FN\'>Cody&nbsp;</td><td valign=\'top\' headers=\'MN\'>Allen&nbsp;</td><td valign=\'top\' headers=\'gender\'>M&nbsp;</td><td valign=\'top\' headers=\'race\'>W&nbsp;</td><td valign=\'top\' headers=\'age\'>17&nbsp;</td><td valign=\'top\' headers=\'city\'>Columbia&nbsp;</td><td valign=\'top\' headers=\'state\'>MO&nbsp;</td></tr><tr class="B"> <td valign=\'top\' headers=\'LN\'>Robison&nbsp;</td><td valign=\'top\' headers=\'FN\'>Dwayne&nbsp;</td><td valign=\'top\' headers=\'MN\'>Scates&nbsp;</td><td valign=\'top\' headers=\'gender\'>M&nbsp;</td><td valign=\'top\' headers=\'race\'>B&nbsp;</td><td valign=\'top\' headers=\'age\'>30&nbsp;</td><td valign=\'top\' headers=\'city\'>Columbia&nbsp;</td><td valign=\'top\' headers=\'state\'>MO&nbsp;</td></tr><tr class="A"> <td valign=\'top\' headers=\'LN\'>Rodriguez&nbsp;</td><td valign=\'top\' headers=\'FN\'>Alfonso&nbsp;</td><td valign=\'top\' headers=\'MN\'>&nbsp;</td><td valign=\'top\' headers=\'gender\'>M&nbsp;</td><td valign=\'top\' headers=\'race\'>H&nbsp;</td><td valign=\'top\' headers=\'age\'>35&nbsp;</td><td valign=\'top\' headers=\'city\'>Carrollton&nbsp;</td><td valign=\'top\' headers=\'state\'>MO&nbsp;</td></tr><tr class="B"> <td valign=\'top\' headers=\'LN\'>Rogers&nbsp;</td><td valign=\'top\' headers=\'FN\'>Tamika&nbsp;</td><td valign=\'top\' headers=\'MN\'>Michelle&nbsp;</td><td valign=\'top\' headers=\'gender\'>F&nbsp;</td><td valign=\'top\' headers=\'race\'>B&nbsp;</td><td valign=\'top\' headers=\'age\'>20&nbsp;</td><td valign=\'top\' headers=\'city\'>Columbia&nbsp;</td><td valign=\'top\' headers=\'state\'>MO&nbsp;</td></tr><tr class="A"> <td valign=\'top\' headers=\'LN\'>Ruff&nbsp;</td><td valign=\'top\' headers=\'FN\'>Jeremy&nbsp;</td><td valign=\'top\' headers=\'MN\'>Allen&nbsp;</td><td valign=\'top\' headers=\'gender\'>M&nbsp;</td><td valign=\'top\' headers=\'race\'>B&nbsp;</td><td valign=\'top\' headers=\'age\'>26&nbsp;</td><td valign=\'top\' headers=\'city\'>St Louis&nbsp;</td><td valign=\'top\' headers=\'state\'>MO&nbsp;</td></tr><tr class="B"> <td valign=\'top\' headers=\'LN\'>Sapp&nbsp;</td><td valign=\'top\' headers=\'FN\'>Clint&nbsp;</td><td valign=\'top\' headers=\'MN\'>Robert&nbsp;</td><td valign=\'top\' headers=\'gender\'>M&nbsp;</td><td valign=\'top\' headers=\'race\'>W&nbsp;</td><td valign=\'top\' headers=\'age\'>19&nbsp;</td><td valign=\'top\' headers=\'city\'>Ashland&nbsp;</td><td valign=\'top\' headers=\'state\'>MO&nbsp;</td></tr><tr class="A"> <td valign=\'top\' headers=\'LN\'>Scales&nbsp;</td><td valign=\'top\' headers=\'FN\'>Wendell&nbsp;</td><td valign=\'top\' headers=\'MN\'>Antonio&nbsp;</td><td valign=\'top\' headers=\'gender\'>M&nbsp;</td><td valign=\'top\' headers=\'race\'>B&nbsp;</td><td valign=\'top\' headers=\'age\'>27&nbsp;</td><td valign=\'top\' headers=\'city\'>Columbia&nbsp;</td><td valign=\'top\' headers=\'state\'>MO&nbsp;</td></tr><tr class="B"> <td valign=\'top\' headers=\'LN\'>Seip&nbsp;</td><td valign=\'top\' headers=\'FN\'>Caleb&nbsp;</td><td valign=\'top\' headers=\'MN\'>Allan&nbsp;</td><td valign=\'top\' headers=\'gender\'>M&nbsp;</td><td valign=\'top\' headers=\'race\'>W&nbsp;</td><td valign=\'top\' headers=\'age\'>18&nbsp;</td><td valign=\'top\' headers=\'city\'>Columbia&nbsp;</td><td valign=\'top\' headers=\'state\'>MO&nbsp;</td></tr><tr class="A"> <td valign=\'top\' headers=\'LN\'>Sewell&nbsp;</td><td valign=\'top\' headers=\'FN\'>Daniel&nbsp;</td><td valign=\'top\' headers=\'MN\'>Christian&nbsp;</td><td valign=\'top\' headers=\'gender\'>M&nbsp;</td><td valign=\'top\' headers=\'race\'>A&nbsp;</td><td valign=\'top\' headers=\'age\'>37&nbsp;</td><td valign=\'top\' headers=\'city\'>Columbia&nbsp;</td><td valign=\'top\' headers=\'state\'>MO&nbsp;</td></tr><tr class="B"> <td valign=\'top\' headers=\'LN\'>Shackelford&nbsp;</td><td valign=\'top\' headers=\'FN\'>Gabriel&nbsp;</td><td valign=\'top\' headers=\'MN\'>Xavier&nbsp;</td><td valign=\'top\' headers=\'gender\'>M&nbsp;</td><td valign=\'top\' headers=\'race\'>W&nbsp;</td><td valign=\'top\' headers=\'age\'>23&nbsp;</td><td valign=\'top\' headers=\'city\'>Moberly&nbsp;</td><td valign=\'top\' headers=\'state\'>MO&nbsp;</td></tr><tr class="A"> <td valign=\'top\' headers=\'LN\'>Shackleford&nbsp;</td><td valign=\'top\' headers=\'FN\'>Xzayvyoughn&nbsp;</td><td valign=\'top\' headers=\'MN\'>Jamir&nbsp;</td><td valign=\'top\' headers=\'gender\'>M&nbsp;</td><td valign=\'top\' headers=\'race\'>B&nbsp;</td><td valign=\'top\' headers=\'age\'>19&nbsp;</td><td valign=\'top\' headers=\'city\'>Columbia&nbsp;</td><td valign=\'top\' headers=\'state\'>MO&nbsp;</td></tr><tr class="B"> <td valign=\'top\' headers=\'LN\'>Shafer&nbsp;</td><td valign=\'top\' headers=\'FN\'>Max&nbsp;</td><td valign=\'top\' headers=\'MN\'>William&nbsp;</td><td valign=\'top\' headers=\'gender\'>M&nbsp;</td><td valign=\'top\' headers=\'race\'>W&nbsp;</td><td valign=\'top\' headers=\'age\'>25&nbsp;</td><td valign=\'top\' headers=\'city\'>Fairfax&nbsp;</td><td valign=\'top\' headers=\'state\'>MO&nbsp;</td></tr><tr class="A"> <td valign=\'top\' headers=\'LN\'>Smith&nbsp;</td><td valign=\'top\' headers=\'FN\'>Eric&nbsp;</td><td valign=\'top\' headers=\'MN\'>Lamon&nbsp;</td><td valign=\'top\' headers=\'gender\'>M&nbsp;</td><td valign=\'top\' headers=\'race\'>B&nbsp;</td><td valign=\'top\' headers=\'age\'>23&nbsp;</td><td valign=\'top\' headers=\'city\'>Verona Beach&nbsp;</td><td valign=\'top\' headers=\'state\'>FL&nbsp;</td></tr><tr class="B"> <td valign=\'top\' headers=\'LN\'>Smith&nbsp;</td><td valign=\'top\' headers=\'FN\'>Jessie&nbsp;</td><td valign=\'top\' headers=\'MN\'>Gavin&nbsp;</td><td valign=\'top\' headers=\'gender\'>M&nbsp;</td><td valign=\'top\' headers=\'race\'>W&nbsp;</td><td valign=\'top\' headers=\'age\'>22&nbsp;</td><td valign=\'top\' headers=\'city\'>Columbia&nbsp;</td><td valign=\'top\' headers=\'state\'>MO&nbsp;</td></tr><tr class="A"> <td valign=\'top\' headers=\'LN\'>Smith&nbsp;</td><td valign=\'top\' headers=\'FN\'>Marcus&nbsp;</td><td valign=\'top\' headers=\'MN\'>Montez&nbsp;</td><td valign=\'top\' headers=\'gender\'>M&nbsp;</td><td valign=\'top\' headers=\'race\'>B&nbsp;</td><td valign=\'top\' headers=\'age\'>42&nbsp;</td><td valign=\'top\' headers=\'city\'>Columbia&nbsp;</td><td valign=\'top\' headers=\'state\'>MO&nbsp;</td></tr><tr class="B"> <td valign=\'top\' headers=\'LN\'>Smith&nbsp;</td><td valign=\'top\' headers=\'FN\'>Martrell&nbsp;</td><td valign=\'top\' headers=\'MN\'>Terrell&nbsp;</td><td valign=\'top\' headers=\'gender\'>M&nbsp;</td><td valign=\'top\' headers=\'race\'>B&nbsp;</td><td valign=\'top\' headers=\'age\'>20&nbsp;</td><td valign=\'top\' headers=\'city\'>Columbia&nbsp;</td><td valign=\'top\' headers=\'state\'>MO&nbsp;</td></tr><tr class="A"> <td valign=\'top\' headers=\'LN\'>Snell&nbsp;</td><td valign=\'top\' headers=\'FN\'>Christopher&nbsp;</td><td valign=\'top\' headers=\'MN\'>Allen&nbsp;</td><td valign=\'top\' headers=\'gender\'>M&nbsp;</td><td valign=\'top\' headers=\'race\'>W&nbsp;</td><td valign=\'top\' headers=\'age\'>24&nbsp;</td><td valign=\'top\' headers=\'city\'>Columbia&nbsp;</td><td valign=\'top\' headers=\'state\'>MO&nbsp;</td></tr><tr class="B"> <td valign=\'top\' headers=\'LN\'>Soper&nbsp;</td><td valign=\'top\' headers=\'FN\'>Christina&nbsp;</td><td valign=\'top\' headers=\'MN\'>Ileen&nbsp;</td><td valign=\'top\' headers=\'gender\'>F&nbsp;</td><td valign=\'top\' headers=\'race\'>W&nbsp;</td><td valign=\'top\' headers=\'age\'>25&nbsp;</td><td valign=\'top\' headers=\'city\'>Columbia&nbsp;</td><td valign=\'top\' headers=\'state\'>MO&nbsp;</td></tr><tr class="A"> <td valign=\'top\' headers=\'LN\'>Steele&nbsp;</td><td valign=\'top\' headers=\'FN\'>Anna&nbsp;</td><td valign=\'top\' headers=\'MN\'>Elizabeth&nbsp;</td><td valign=\'top\' headers=\'gender\'>F&nbsp;</td><td valign=\'top\' headers=\'race\'>W&nbsp;</td><td valign=\'top\' headers=\'age\'>24&nbsp;</td><td valign=\'top\' headers=\'city\'>Columbia&nbsp;</td><td valign=\'top\' headers=\'state\'>MO&nbsp;</td></tr><tr class="B"> <td valign=\'top\' headers=\'LN\'>Steffens&nbsp;</td><td valign=\'top\' headers=\'FN\'>Jesse&nbsp;</td><td valign=\'top\' headers=\'MN\'>Stephen&nbsp;</td><td valign=\'top\' headers=\'gender\'>M&nbsp;</td><td valign=\'top\' headers=\'race\'>W&nbsp;</td><td valign=\'top\' headers=\'age\'>55&nbsp;</td><td valign=\'top\' headers=\'city\'>Homestead&nbsp;</td><td valign=\'top\' headers=\'state\'>FL&nbsp;</td></tr><tr class="A"> <td valign=\'top\' headers=\'LN\'>Stewart&nbsp;</td><td valign=\'top\' headers=\'FN\'>David&nbsp;</td><td valign=\'top\' headers=\'MN\'>Matthew&nbsp;</td><td valign=\'top\' headers=\'gender\'>M&nbsp;</td><td valign=\'top\' headers=\'race\'>W&nbsp;</td><td valign=\'top\' headers=\'age\'>41&nbsp;</td><td valign=\'top\' headers=\'city\'>Columbia&nbsp;</td><td valign=\'top\' headers=\'state\'>MO&nbsp;</td></tr><tr class="B"> <td valign=\'top\' headers=\'LN\'>Storzer&nbsp;</td><td valign=\'top\' headers=\'FN\'>Jackie&nbsp;</td><td valign=\'top\' headers=\'MN\'>Lynn&nbsp;</td><td valign=\'top\' headers=\'gender\'>F&nbsp;</td><td valign=\'top\' headers=\'race\'>W&nbsp;</td><td valign=\'top\' headers=\'age\'>33&nbsp;</td><td valign=\'top\' headers=\'city\'>Columbia&nbsp;</td><td valign=\'top\' headers=\'state\'>MO&nbsp;</td></tr><tr class="A"> <td valign=\'top\' headers=\'LN\'>Stuart&nbsp;</td><td valign=\'top\' headers=\'FN\'>Steven&nbsp;</td><td valign=\'top\' headers=\'MN\'>Eric&nbsp;</td><td valign=\'top\' headers=\'gender\'>M&nbsp;</td><td valign=\'top\' headers=\'race\'>W&nbsp;</td><td valign=\'top\' headers=\'age\'>31&nbsp;</td><td valign=\'top\' headers=\'city\'>Columbia&nbsp;</td><td valign=\'top\' headers=\'state\'>MO&nbsp;</td></tr><tr class="B"> <td valign=\'top\' headers=\'LN\'>Talton&nbsp;</td><td valign=\'top\' headers=\'FN\'>Jimmy&nbsp;</td><td valign=\'top\' headers=\'MN\'>Joseph&nbsp;</td><td valign=\'top\' headers=\'gender\'>M&nbsp;</td><td valign=\'top\' headers=\'race\'>B&nbsp;</td><td valign=\'top\' headers=\'age\'>21&nbsp;</td><td valign=\'top\' headers=\'city\'>Columbia&nbsp;</td><td valign=\'top\' headers=\'state\'>MO&nbsp;</td></tr><tr class="A"> <td valign=\'top\' headers=\'LN\'>Tatum&nbsp;</td><td valign=\'top\' headers=\'FN\'>Demetrice&nbsp;</td><td valign=\'top\' headers=\'MN\'>Marquez&nbsp;</td><td valign=\'top\' headers=\'gender\'>M&nbsp;</td><td valign=\'top\' headers=\'race\'>B&nbsp;</td><td valign=\'top\' headers=\'age\'>28&nbsp;</td><td valign=\'top\' headers=\'city\'>Fulton&nbsp;</td><td valign=\'top\' headers=\'state\'>MO&nbsp;</td></tr><tr class="B"> <td valign=\'top\' headers=\'LN\'>Thatcher&nbsp;</td><td valign=\'top\' headers=\'FN\'>Justin&nbsp;</td><td valign=\'top\' headers=\'MN\'>Cain&nbsp;</td><td valign=\'top\' headers=\'gender\'>M&nbsp;</td><td valign=\'top\' headers=\'race\'>W&nbsp;</td><td valign=\'top\' headers=\'age\'>40&nbsp;</td><td valign=\'top\' headers=\'city\'>Columbia&nbsp;</td><td valign=\'top\' headers=\'state\'>MO&nbsp;</td></tr><tr class="A"> <td valign=\'top\' headers=\'LN\'>Thomas&nbsp;</td><td valign=\'top\' headers=\'FN\'>Lamaron&nbsp;</td><td valign=\'top\' headers=\'MN\'>Attone&nbsp;</td><td valign=\'top\' headers=\'gender\'>M&nbsp;</td><td valign=\'top\' headers=\'race\'>B&nbsp;</td><td valign=\'top\' headers=\'age\'>48&nbsp;</td><td valign=\'top\' headers=\'city\'>Columbia&nbsp;</td><td valign=\'top\' headers=\'state\'>MO&nbsp;</td></tr><tr class="B"> <td valign=\'top\' headers=\'LN\'>Thomas&nbsp;</td><td valign=\'top\' headers=\'FN\'>Margaret&nbsp;</td><td valign=\'top\' headers=\'MN\'>Ann&nbsp;</td><td valign=\'top\' headers=\'gender\'>F&nbsp;</td><td valign=\'top\' headers=\'race\'>B&nbsp;</td><td valign=\'top\' headers=\'age\'>51&nbsp;</td><td valign=\'top\' headers=\'city\'>Jefferson City&nbsp;</td><td valign=\'top\' headers=\'state\'>MO&nbsp;</td></tr><tr class="A"> <td valign=\'top\' headers=\'LN\'>Thomas&nbsp;</td><td valign=\'top\' headers=\'FN\'>Nicholas&nbsp;</td><td valign=\'top\' headers=\'MN\'>Raheem&nbsp;</td><td valign=\'top\' headers=\'gender\'>M&nbsp;</td><td valign=\'top\' headers=\'race\'>B&nbsp;</td><td valign=\'top\' headers=\'age\'>20&nbsp;</td><td valign=\'top\' headers=\'city\'>Columbia&nbsp;</td><td valign=\'top\' headers=\'state\'>MO&nbsp;</td></tr><tr class="B"> <td valign=\'top\' headers=\'LN\'>Thompson&nbsp;</td><td valign=\'top\' headers=\'FN\'>James&nbsp;</td><td valign=\'top\' headers=\'MN\'>Robert&nbsp;</td><td valign=\'top\' headers=\'gender\'>M&nbsp;</td><td valign=\'top\' headers=\'race\'>W&nbsp;</td><td valign=\'top\' headers=\'age\'>24&nbsp;</td><td valign=\'top\' headers=\'city\'>Columbia&nbsp;</td><td valign=\'top\' headers=\'state\'>MO&nbsp;</td></tr><tr class="A"> <td valign=\'top\' headers=\'LN\'>Thompson&nbsp;</td><td valign=\'top\' headers=\'FN\'>Shirley&nbsp;</td><td valign=\'top\' headers=\'MN\'>Faye&nbsp;</td><td valign=\'top\' headers=\'gender\'>F&nbsp;</td><td valign=\'top\' headers=\'race\'>B&nbsp;</td><td valign=\'top\' headers=\'age\'>47&nbsp;</td><td valign=\'top\' headers=\'city\'>Columbia&nbsp;</td><td valign=\'top\' headers=\'state\'>MO&nbsp;</td></tr><tr class="B"> <td valign=\'top\' headers=\'LN\'>Thurmond&nbsp;</td><td valign=\'top\' headers=\'FN\'>Travis&nbsp;</td><td valign=\'top\' headers=\'MN\'>James&nbsp;</td><td valign=\'top\' headers=\'gender\'>M&nbsp;</td><td valign=\'top\' headers=\'race\'>W&nbsp;</td><td valign=\'top\' headers=\'age\'>26&nbsp;</td><td valign=\'top\' headers=\'city\'>Centralia&nbsp;</td><td valign=\'top\' headers=\'state\'>MO&nbsp;</td></tr><tr class="A"> <td valign=\'top\' headers=\'LN\'>Turner&nbsp;</td><td valign=\'top\' headers=\'FN\'>Jordan&nbsp;</td><td valign=\'top\' headers=\'MN\'>Rick&nbsp;</td><td valign=\'top\' headers=\'gender\'>M&nbsp;</td><td valign=\'top\' headers=\'race\'>W&nbsp;</td><td valign=\'top\' headers=\'age\'>20&nbsp;</td><td valign=\'top\' headers=\'city\'>Steelville&nbsp;</td><td valign=\'top\' headers=\'state\'>MO&nbsp;</td></tr><tr class="B"> <td valign=\'top\' headers=\'LN\'>Turner&nbsp;</td><td valign=\'top\' headers=\'FN\'>Keith&nbsp;</td><td valign=\'top\' headers=\'MN\'>Ryan&nbsp;</td><td valign=\'top\' headers=\'gender\'>M&nbsp;</td><td valign=\'top\' headers=\'race\'>W&nbsp;</td><td valign=\'top\' headers=\'age\'>22&nbsp;</td><td valign=\'top\' headers=\'city\'>Columbia&nbsp;</td><td valign=\'top\' headers=\'state\'>MO&nbsp;</td></tr><tr class="A"> <td valign=\'top\' headers=\'LN\'>Walker&nbsp;</td><td valign=\'top\' headers=\'FN\'>Parish&nbsp;</td><td valign=\'top\' headers=\'MN\'>Tajuan&nbsp;</td><td valign=\'top\' headers=\'gender\'>M&nbsp;</td><td valign=\'top\' headers=\'race\'>B&nbsp;</td><td valign=\'top\' headers=\'age\'>30&nbsp;</td><td valign=\'top\' headers=\'city\'>Columbia&nbsp;</td><td valign=\'top\' headers=\'state\'>MO&nbsp;</td></tr><tr class="B"> <td valign=\'top\' headers=\'LN\'>Wallace&nbsp;</td><td valign=\'top\' headers=\'FN\'>Arthur&nbsp;</td><td valign=\'top\' headers=\'MN\'>Lamont&nbsp;</td><td valign=\'top\' headers=\'gender\'>M&nbsp;</td><td valign=\'top\' headers=\'race\'>B&nbsp;</td><td valign=\'top\' headers=\'age\'>51&nbsp;</td><td valign=\'top\' headers=\'city\'>Columbia&nbsp;</td><td valign=\'top\' headers=\'state\'>MO&nbsp;</td></tr><tr class="A"> <td valign=\'top\' headers=\'LN\'>Wheeler&nbsp;</td><td valign=\'top\' headers=\'FN\'>Adrian&nbsp;</td><td valign=\'top\' headers=\'MN\'>James&nbsp;</td><td valign=\'top\' headers=\'gender\'>M&nbsp;</td><td valign=\'top\' headers=\'race\'>W&nbsp;</td><td valign=\'top\' headers=\'age\'>23&nbsp;</td><td valign=\'top\' headers=\'city\'>Columbia&nbsp;</td><td valign=\'top\' headers=\'state\'>MO&nbsp;</td></tr><tr class="B"> <td valign=\'top\' headers=\'LN\'>Whitney&nbsp;</td><td valign=\'top\' headers=\'FN\'>Payton&nbsp;</td><td valign=\'top\' headers=\'MN\'>Eugene&nbsp;</td><td valign=\'top\' headers=\'gender\'>M&nbsp;</td><td valign=\'top\' headers=\'race\'>B&nbsp;</td><td valign=\'top\' headers=\'age\'>27&nbsp;</td><td valign=\'top\' headers=\'city\'>Kansas City&nbsp;</td><td valign=\'top\' headers=\'state\'>MO&nbsp;</td></tr><tr class="A"> <td valign=\'top\' headers=\'LN\'>Williams&nbsp;</td><td valign=\'top\' headers=\'FN\'>Anthony&nbsp;</td><td valign=\'top\' headers=\'MN\'>Lee&nbsp;</td><td valign=\'top\' headers=\'gender\'>M&nbsp;</td><td valign=\'top\' headers=\'race\'>B&nbsp;</td><td valign=\'top\' headers=\'age\'>48&nbsp;</td><td valign=\'top\' headers=\'city\'>Columbia&nbsp;</td><td valign=\'top\' headers=\'state\'>MO&nbsp;</td></tr><tr class="B"> <td valign=\'top\' headers=\'LN\'>Williams&nbsp;</td><td valign=\'top\' headers=\'FN\'>Marcus&nbsp;</td><td valign=\'top\' headers=\'MN\'>Mandell&nbsp;</td><td valign=\'top\' headers=\'gender\'>M&nbsp;</td><td valign=\'top\' headers=\'race\'>B&nbsp;</td><td valign=\'top\' headers=\'age\'>29&nbsp;</td><td valign=\'top\' headers=\'city\'>Columbia&nbsp;</td><td valign=\'top\' headers=\'state\'>MO&nbsp;</td></tr><tr class="A"> <td valign=\'top\' headers=\'LN\'>Williford&nbsp;</td><td valign=\'top\' headers=\'FN\'>Michael&nbsp;</td><td valign=\'top\' headers=\'MN\'>Shawn&nbsp;</td><td valign=\'top\' headers=\'gender\'>M&nbsp;</td><td valign=\'top\' headers=\'race\'>W&nbsp;</td><td valign=\'top\' headers=\'age\'>36&nbsp;</td><td valign=\'top\' headers=\'city\'>Columbia&nbsp;</td><td valign=\'top\' headers=\'state\'>MO&nbsp;</td></tr><tr class="B"> <td valign=\'top\' headers=\'LN\'>Wilson&nbsp;</td><td valign=\'top\' headers=\'FN\'>Cortez&nbsp;</td><td valign=\'top\' headers=\'MN\'>Lamar&nbsp;</td><td valign=\'top\' headers=\'gender\'>M&nbsp;</td><td valign=\'top\' headers=\'race\'>B&nbsp;</td><td valign=\'top\' headers=\'age\'>25&nbsp;</td><td valign=\'top\' headers=\'city\'>Columbia&nbsp;</td><td valign=\'top\' headers=\'state\'>MO&nbsp;</td></tr><tr class="A"> <td valign=\'top\' headers=\'LN\'>Wiltz&nbsp;</td><td valign=\'top\' headers=\'FN\'>Limetro&nbsp;</td><td valign=\'top\' headers=\'MN\'>Artrez&nbsp;</td><td valign=\'top\' headers=\'gender\'>M&nbsp;</td><td valign=\'top\' headers=\'race\'>B&nbsp;</td><td valign=\'top\' headers=\'age\'>21&nbsp;</td><td valign=\'top\' headers=\'city\'>Columbia&nbsp;</td><td valign=\'top\' headers=\'state\'>MO&nbsp;</td></tr><tr class="B"> <td valign=\'top\' headers=\'LN\'>Winters&nbsp;</td><td valign=\'top\' headers=\'FN\'>James&nbsp;</td><td valign=\'top\' headers=\'MN\'>Dwayne&nbsp;</td><td valign=\'top\' headers=\'gender\'>M&nbsp;</td><td valign=\'top\' headers=\'race\'>B&nbsp;</td><td valign=\'top\' headers=\'age\'>41&nbsp;</td><td valign=\'top\' headers=\'city\'>Columbia&nbsp;</td><td valign=\'top\' headers=\'state\'>MO&nbsp;</td></tr><tr class="A"> <td valign=\'top\' headers=\'LN\'>Woods&nbsp;</td><td valign=\'top\' headers=\'FN\'>David&nbsp;</td><td valign=\'top\' headers=\'MN\'>Earl&nbsp;</td><td valign=\'top\' headers=\'gender\'>M&nbsp;</td><td valign=\'top\' headers=\'race\'>W&nbsp;</td><td valign=\'top\' headers=\'age\'>44&nbsp;</td><td valign=\'top\' headers=\'city\'>Jefferson City&nbsp;</td><td valign=\'top\' headers=\'state\'>MO&nbsp;</td></tr><tr class="B"> <td valign=\'top\' headers=\'LN\'>Wyatt&nbsp;</td><td valign=\'top\' headers=\'FN\'>Matthew&nbsp;</td><td valign=\'top\' headers=\'MN\'>Jay&nbsp;</td><td valign=\'top\' headers=\'gender\'>M&nbsp;</td><td valign=\'top\' headers=\'race\'>B&nbsp;</td><td valign=\'top\' headers=\'age\'>25&nbsp;</td><td valign=\'top\' headers=\'city\'>St Louis&nbsp;</td><td valign=\'top\' headers=\'state\'>MO&nbsp;</td></tr><tr class="A"> <td valign=\'top\' headers=\'LN\'>Yancey&nbsp;</td><td valign=\'top\' headers=\'FN\'>Tre&nbsp;</td><td valign=\'top\' headers=\'MN\'>Ladean&nbsp;</td><td valign=\'top\' headers=\'gender\'>M&nbsp;</td><td valign=\'top\' headers=\'race\'>B&nbsp;</td><td valign=\'top\' headers=\'age\'>22&nbsp;</td><td valign=\'top\' headers=\'city\'>Moberly&nbsp;</td><td valign=\'top\' headers=\'state\'>MO&nbsp;</td></tr><tr class="B"> <td valign=\'top\' headers=\'LN\'>Zimmer&nbsp;</td><td valign=\'top\' headers=\'FN\'>Jeffrey&nbsp;</td><td valign=\'top\' headers=\'MN\'>James&nbsp;</td><td valign=\'top\' headers=\'gender\'>M&nbsp;</td><td valign=\'top\' headers=\'race\'>W&nbsp;</td><td valign=\'top\' headers=\'age\'>23&nbsp;</td><td valign=\'top\' headers=\'city\'>Columbia&nbsp;</td><td valign=\'top\' headers=\'state\'>MO&nbsp;</td></tr> \r\n\r\n\t\t</table>\r\n\t\tRecord Count: 210\r\n\t\t<span class ="counter"><br/>This page viewed 838042 times since 1/3/06</span> \r\n\r\n\r\n</div>\r\n<span class="bottom">\r\n\r\n\r\n<div class="footer">\r\n<hr/>\r\n<p align="center">\r\n    <font size="2" face="Arial"><a href="/" target="_top">Home</a>   | \r\n    <a href="/Home/BCmap.asp">Map</a>  | \r\n    <a href="/Home/sitemap.asp">Site Map</a>    | \r\n    <a href="/Home/CountyOfficials.asp">County Officials</a> |\r\n    <a href="/redirect.asp?url=http://oseda.missouri.edu/cgi-bin/countypage?29019" >County Fact Sheets</a><br/>\r\n    <br/>\r\n    <a href="/ASSESSOR/" target="_top">Assessor</a>  | \r\n    <a href="/AUDITOR/" target="_top">Auditor</a>  | \r\n    <a href="/CLERK/" target="_top">County Clerk</a>  | \r\n    <a href="/COLLECTOR/" target="_top">Collector</a>  | \r\n    <a href="/COMMISSION/" target="_top">Commission</a> | \r\n    <a href="/HR/" target="_top">Human Resources</a>  | \r\n    <a href="/GIS/" target="_top">GIS</a>  <br/>\r\n     \r\n    <a href="/PA/" target="_top">Prosecuting Attorney</a> | \r\n    <a href="/PW/" target="_top">Public Works</a>&nbsp;|\r\n    <a href="/PURCHASING/" target="_top">Purchasing</a> | \r\n    <a href="/PUBLICADMIN/" target="_top">Public Administrator</a><br/>\r\n    <a href="/RECORDER/" target="_top">Recorder of Deeds</a>  | \r\n    <a href="/ResourceManagement/" target="_top">Resource Management</a>  | \r\n    <a href="/SHERIFF/" target="_top">Sheriff</a>  | \r\n    <a href="/TREASURER/" target="_top">Treasurer</a></font>\r\n</p>\r\n    <p align="center"><font size="2" face="Arial">Questions or Comments? </font>\r\n    <a href="mailto:Sheriff&#064;&#098;&#111;&#111;&#110;&#101;&#099;&#111;&#117;&#110;&#116;&#121;&#109;&#111;&#046;&#111;&#114;&#103;"><font size="2" face="Arial">E-mail Sheriff</font></a></p>\r\n    \r\n    <p align="center"><font face="Arial" size="1">\r\n    <a href="/" target="_top">www.ShowMeBoone.com</a> Boone County, Missouri. \r\n    &nbsp;801 East Walnut Columbia, MO 65201 USA</font></p>\r\n    </div>\r\n</span>\r\n</body>\r\n\r\n</html>\r\n'
p56
sS'encoding'
p57
S'ISO-8859-1'
p58
sS'url'
p59
Vhttp://www.showmeboone.com/sheriff/JailResidents/JailResidents.asp
p60
sS'status_code'
p61
I200
sS'request'
p62
g0
(crequests.models
PreparedRequest
p63
g2
Ntp64
Rp65
(dp66
S'body'
p67
Nsg59
S'http://www.showmeboone.com/sheriff/JailResidents/JailResidents.asp'
p68
sS'hooks'
p69
(dp70
S'response'
p71
(lp72
ssS'headers'
p73
g0
(crequests.structures
CaseInsensitiveDict
p74
g2
Ntp75
Rp76
(dp77
S'_store'
p78
(dp79
S'accept-encoding'
p80
(S'Accept-Encoding'
p81
S'gzip, deflate, compress'
p82
tp83
sS'accept'
p84
(S'Accept'
p85
S'*/*'
p86
tp87
sS'user-agent'
p88
(S'User-Agent'
p89
S'python-requests/2.2.1 CPython/2.7.6 Linux/3.13.5-1-ARCH'
p90
tp91
ssbsg27
g0
(g7
g2
Ntp92
Rp93
(dp94
g11
I1394560875
sg12
(icookielib
DefaultCookiePolicy
p95
(dp96
g15
I01
sg16
I0
sg17
Nsg18
Nsg19
I00
sg20
I00
sg11
I1394560875
sg21
I00
sg22
I00
sg23
I00
sg24
I00
sg25
(tsg26
I01
sbsg27
(dp97
sbsS'method'
p98
S'GET'
p99
sbsS'elapsed'
p100
cdatetime
timedelta
p101
(I0
I1
I51044
tp102
Rp103
sg73
g0
(g74
g2
Ntp104
Rp105
(dp106
g78
(dp107
S'x-proxymesh-ip'
p108
(S'x-proxymesh-ip'
p109
S'166.78.152.10'
p110
tp111
sS'x-powered-by'
p112
(S'x-powered-by'
p113
S'ASP.NET'
p114
tp115
sS'set-cookie'
p116
(S'set-cookie'
p117
S'ASPSESSIONIDASTQSSBB=BPIDCIGDEENICAJFOIFIFIFJ; path=/'
p118
tp119
sS'server'
p120
(S'server'
p121
S'Microsoft-IIS/8.0'
p122
tp123
sS'cache-control'
p124
(S'cache-control'
p125
S'private'
p126
tp127
sS'date'
p128
(S'date'
p129
S'Tue, 11 Mar 2014 18:01:25 GMT'
p130
tp131
sS'content-type'
p132
(S'content-type'
p133
S'text/html'
p134
tp135
ssbsS'reason'
p136
S'OK'
p137
sS'history'
p138
(lp139
sb.